ARM GAS  C:\Users\leoja\AppData\Local\Temp\cc4BGPBu.s 			page 1


   1              		.syntax unified
   2              		.cpu cortex-m3
   3              		.fpu softvfp
   4              		.eabi_attribute 20, 1
   5              		.eabi_attribute 21, 1
   6              		.eabi_attribute 23, 3
   7              		.eabi_attribute 24, 1
   8              		.eabi_attribute 25, 1
   9              		.eabi_attribute 26, 1
  10              		.eabi_attribute 30, 6
  11              		.eabi_attribute 34, 1
  12              		.eabi_attribute 18, 4
  13              		.thumb
  14              		.syntax unified
  15              		.file	"main.c"
  16              		.text
  17              	.Ltext0:
  18              		.cfi_sections	.debug_frame
  19              		.section	.rodata
  20              		.align	2
  21              	.LC0:
  22 0000 50657266 		.ascii	"Perform\000"
  22      6F726D00 
  23              		.section	.text.main,"ax",%progbits
  24              		.align	2
  25              		.global	main
  26              		.thumb
  27              		.thumb_func
  28              		.type	main, %function
  29              	main:
  30              	.LFB63:
  31              		.file 1 "main.c"
   1:main.c        **** /*******************************************************************************
   2:main.c        **** * File Name: main.c
   3:main.c        **** *
   4:main.c        **** * Version: 2.0
   5:main.c        **** *
   6:main.c        **** * Description:
   7:main.c        **** *  The example project displays " CYPRESS" in custom font on a 2X16 LCD 
   8:main.c        **** *  available with CY8CKIT-001.
   9:main.c        **** *
  10:main.c        **** ********************************************************************************
  11:main.c        **** * Copyright 2012, Cypress Semiconductor Corporation. All rights reserved.
  12:main.c        **** * This software is owned by Cypress Semiconductor Corporation and is protected
  13:main.c        **** * by and subject to worldwide patent and copyright laws and treaties.
  14:main.c        **** * Therefore, you may use this software only as provided in the license agreement
  15:main.c        **** * accompanying the software package from which you obtained this software.
  16:main.c        **** * CYPRESS AND ITS SUPPLIERS MAKE NO WARRANTY OF ANY KIND, EXPRESS OR IMPLIED,
  17:main.c        **** * WITH REGARD TO THIS SOFTWARE, INCLUDING, BUT NOT LIMITED TO, NONINFRINGEMENT,
  18:main.c        **** * IMPLIED WARRANTIES OF MERCHANTABILITY AND FITNESS FOR A PARTICULAR PURPOSE.
  19:main.c        **** *******************************************************************************/
  20:main.c        **** 
  21:main.c        **** #include <project.h>
  22:main.c        **** 
  23:main.c        **** extern uint8 const CYCODE LCD_customFonts[];
  24:main.c        **** 
  25:main.c        **** /*******************************************************************************
ARM GAS  C:\Users\leoja\AppData\Local\Temp\cc4BGPBu.s 			page 2


  26:main.c        **** * Function Name: main
  27:main.c        **** ********************************************************************************
  28:main.c        **** *
  29:main.c        **** * Summary:
  30:main.c        **** *  The main program does the following
  31:main.c        **** *  1. Initializes the LCD.
  32:main.c        **** *  2. Loads custom fonts. 
  33:main.c        **** *  3. Puts "CYPRESS" in custom available font in row 0 of the LCD.
  34:main.c        **** *  4. Prints " Perform" in normal font in row 1 of the LCD.
  35:main.c        **** *
  36:main.c        **** * Parameters:
  37:main.c        **** *  None.
  38:main.c        **** *
  39:main.c        **** * Return:
  40:main.c        **** *  None.
  41:main.c        **** *
  42:main.c        **** *******************************************************************************/
  43:main.c        **** int main()
  44:main.c        **** {   
  32              		.loc 1 44 0
  33              		.cfi_startproc
  34              		@ args = 0, pretend = 0, frame = 8
  35              		@ frame_needed = 1, uses_anonymous_args = 0
  36 0000 80B5     		push	{r7, lr}
  37              		.cfi_def_cfa_offset 8
  38              		.cfi_offset 7, -8
  39              		.cfi_offset 14, -4
  40 0002 82B0     		sub	sp, sp, #8
  41              		.cfi_def_cfa_offset 16
  42 0004 00AF     		add	r7, sp, #0
  43              		.cfi_def_cfa_register 7
  45:main.c        ****   uint8 pos = 1u;
  44              		.loc 1 45 0
  45 0006 0123     		movs	r3, #1
  46 0008 FB71     		strb	r3, [r7, #7]
  46:main.c        ****   uint8 row = 0u;
  47              		.loc 1 46 0
  48 000a 0023     		movs	r3, #0
  49 000c BB71     		strb	r3, [r7, #6]
  47:main.c        ****   
  48:main.c        ****   LCD_Start();
  50              		.loc 1 48 0
  51 000e FFF7FEFF 		bl	LCD_Start
  49:main.c        ****   LCD_LoadCustomFonts(LCD_customFonts);    
  52              		.loc 1 49 0
  53 0012 3148     		ldr	r0, .L3
  54 0014 FFF7FEFF 		bl	LCD_LoadCustomFonts
  50:main.c        **** 
  51:main.c        ****   LCD_Position(row, pos);
  55              		.loc 1 51 0
  56 0018 FA79     		ldrb	r2, [r7, #7]	@ zero_extendqisi2
  57 001a BB79     		ldrb	r3, [r7, #6]	@ zero_extendqisi2
  58 001c 1146     		mov	r1, r2
  59 001e 1846     		mov	r0, r3
  60 0020 FFF7FEFF 		bl	LCD_Position
  52:main.c        ****   LCD_PutChar(LCD_CUSTOM_0);        /* Puts "C" at 2nd column in first row */
  61              		.loc 1 52 0
ARM GAS  C:\Users\leoja\AppData\Local\Temp\cc4BGPBu.s 			page 3


  62 0024 0020     		movs	r0, #0
  63 0026 FFF7FEFF 		bl	LCD_PutChar
  53:main.c        ****   pos += 2u;
  64              		.loc 1 53 0
  65 002a FB79     		ldrb	r3, [r7, #7]
  66 002c 0233     		adds	r3, r3, #2
  67 002e FB71     		strb	r3, [r7, #7]
  54:main.c        **** 
  55:main.c        ****   LCD_Position(row, pos);
  68              		.loc 1 55 0
  69 0030 FA79     		ldrb	r2, [r7, #7]	@ zero_extendqisi2
  70 0032 BB79     		ldrb	r3, [r7, #6]	@ zero_extendqisi2
  71 0034 1146     		mov	r1, r2
  72 0036 1846     		mov	r0, r3
  73 0038 FFF7FEFF 		bl	LCD_Position
  56:main.c        ****   LCD_PutChar(LCD_CUSTOM_1);        /* Puts "Y" at 4th column in first row */
  74              		.loc 1 56 0
  75 003c 0120     		movs	r0, #1
  76 003e FFF7FEFF 		bl	LCD_PutChar
  57:main.c        ****   pos += 2u;
  77              		.loc 1 57 0
  78 0042 FB79     		ldrb	r3, [r7, #7]
  79 0044 0233     		adds	r3, r3, #2
  80 0046 FB71     		strb	r3, [r7, #7]
  58:main.c        ****         
  59:main.c        ****   LCD_Position(row, pos);
  81              		.loc 1 59 0
  82 0048 FA79     		ldrb	r2, [r7, #7]	@ zero_extendqisi2
  83 004a BB79     		ldrb	r3, [r7, #6]	@ zero_extendqisi2
  84 004c 1146     		mov	r1, r2
  85 004e 1846     		mov	r0, r3
  86 0050 FFF7FEFF 		bl	LCD_Position
  60:main.c        ****   LCD_PutChar(LCD_CUSTOM_2);        /* Puts "P" at 6th column in first row */
  87              		.loc 1 60 0
  88 0054 0220     		movs	r0, #2
  89 0056 FFF7FEFF 		bl	LCD_PutChar
  61:main.c        ****   pos += 2u;
  90              		.loc 1 61 0
  91 005a FB79     		ldrb	r3, [r7, #7]
  92 005c 0233     		adds	r3, r3, #2
  93 005e FB71     		strb	r3, [r7, #7]
  62:main.c        **** 
  63:main.c        ****   LCD_Position(row, pos);
  94              		.loc 1 63 0
  95 0060 FA79     		ldrb	r2, [r7, #7]	@ zero_extendqisi2
  96 0062 BB79     		ldrb	r3, [r7, #6]	@ zero_extendqisi2
  97 0064 1146     		mov	r1, r2
  98 0066 1846     		mov	r0, r3
  99 0068 FFF7FEFF 		bl	LCD_Position
  64:main.c        ****   LCD_PutChar(LCD_CUSTOM_3);        /* Puts "R" at 8th column in first row */
 100              		.loc 1 64 0
 101 006c 0320     		movs	r0, #3
 102 006e FFF7FEFF 		bl	LCD_PutChar
  65:main.c        ****   pos += 2u;     
 103              		.loc 1 65 0
 104 0072 FB79     		ldrb	r3, [r7, #7]
 105 0074 0233     		adds	r3, r3, #2
ARM GAS  C:\Users\leoja\AppData\Local\Temp\cc4BGPBu.s 			page 4


 106 0076 FB71     		strb	r3, [r7, #7]
  66:main.c        ****   
  67:main.c        ****   LCD_Position(row, pos);
 107              		.loc 1 67 0
 108 0078 FA79     		ldrb	r2, [r7, #7]	@ zero_extendqisi2
 109 007a BB79     		ldrb	r3, [r7, #6]	@ zero_extendqisi2
 110 007c 1146     		mov	r1, r2
 111 007e 1846     		mov	r0, r3
 112 0080 FFF7FEFF 		bl	LCD_Position
  68:main.c        ****   LCD_PutChar(LCD_CUSTOM_4);        /* Puts "E" at 10th column in first row */
 113              		.loc 1 68 0
 114 0084 0420     		movs	r0, #4
 115 0086 FFF7FEFF 		bl	LCD_PutChar
  69:main.c        ****   pos += 2u;
 116              		.loc 1 69 0
 117 008a FB79     		ldrb	r3, [r7, #7]
 118 008c 0233     		adds	r3, r3, #2
 119 008e FB71     		strb	r3, [r7, #7]
  70:main.c        ****         
  71:main.c        ****   LCD_Position(row, pos);
 120              		.loc 1 71 0
 121 0090 FA79     		ldrb	r2, [r7, #7]	@ zero_extendqisi2
 122 0092 BB79     		ldrb	r3, [r7, #6]	@ zero_extendqisi2
 123 0094 1146     		mov	r1, r2
 124 0096 1846     		mov	r0, r3
 125 0098 FFF7FEFF 		bl	LCD_Position
  72:main.c        ****   LCD_PutChar(LCD_CUSTOM_5);        /* Puts "S" at 12th column in first row */
 126              		.loc 1 72 0
 127 009c 0520     		movs	r0, #5
 128 009e FFF7FEFF 		bl	LCD_PutChar
  73:main.c        ****   pos += 2u;
 129              		.loc 1 73 0
 130 00a2 FB79     		ldrb	r3, [r7, #7]
 131 00a4 0233     		adds	r3, r3, #2
 132 00a6 FB71     		strb	r3, [r7, #7]
  74:main.c        ****         
  75:main.c        ****   LCD_Position(row, pos);
 133              		.loc 1 75 0
 134 00a8 FA79     		ldrb	r2, [r7, #7]	@ zero_extendqisi2
 135 00aa BB79     		ldrb	r3, [r7, #6]	@ zero_extendqisi2
 136 00ac 1146     		mov	r1, r2
 137 00ae 1846     		mov	r0, r3
 138 00b0 FFF7FEFF 		bl	LCD_Position
  76:main.c        ****   LCD_PutChar(LCD_CUSTOM_6);        /* Puts "S" at 14th column in first row */
 139              		.loc 1 76 0
 140 00b4 0620     		movs	r0, #6
 141 00b6 FFF7FEFF 		bl	LCD_PutChar
  77:main.c        ****   pos += 2u;
 142              		.loc 1 77 0
 143 00ba FB79     		ldrb	r3, [r7, #7]
 144 00bc 0233     		adds	r3, r3, #2
 145 00be FB71     		strb	r3, [r7, #7]
  78:main.c        ****     
  79:main.c        ****   CyDelay(200u);
 146              		.loc 1 79 0
 147 00c0 C820     		movs	r0, #200
 148 00c2 FFF7FEFF 		bl	CyDelay
ARM GAS  C:\Users\leoja\AppData\Local\Temp\cc4BGPBu.s 			page 5


  80:main.c        ****   LCD_Position(1u, 9u);
 149              		.loc 1 80 0
 150 00c6 0921     		movs	r1, #9
 151 00c8 0120     		movs	r0, #1
 152 00ca FFF7FEFF 		bl	LCD_Position
  81:main.c        ****   LCD_PrintString("Perform");        /* Puts "Perform" from 8th column in second row */
 153              		.loc 1 81 0
 154 00ce 0348     		ldr	r0, .L3+4
 155 00d0 FFF7FEFF 		bl	LCD_PrintString
 156              	.L2:
  82:main.c        ****            
  83:main.c        ****   for(;;)
  84:main.c        ****   {}
 157              		.loc 1 84 0 discriminator 1
 158 00d4 FEE7     		b	.L2
 159              	.L4:
 160 00d6 00BF     		.align	2
 161              	.L3:
 162 00d8 00000000 		.word	LCD_customFonts
 163 00dc 00000000 		.word	.LC0
 164              		.cfi_endproc
 165              	.LFE63:
 166              		.size	main, .-main
 167              		.text
 168              	.Letext0:
 169              		.file 2 "c:\\program files (x86)\\cypress\\psoc creator\\4.4\\psoc creator\\import\\gnu\\arm\\5.4.
 170              		.file 3 "c:\\program files (x86)\\cypress\\psoc creator\\4.4\\psoc creator\\import\\gnu\\arm\\5.4.
 171              		.file 4 "Generated_Source\\PSoC5/cytypes.h"
 172              		.file 5 "Generated_Source\\PSoC5/core_cm3.h"