ARM GAS  C:\Users\leoja\AppData\Local\Temp\ccKgfOkx.s 			page 1


   1              		.syntax unified
   2              		.cpu cortex-m3
   3              		.fpu softvfp
   4              		.eabi_attribute 20, 1
   5              		.eabi_attribute 21, 1
   6              		.eabi_attribute 23, 3
   7              		.eabi_attribute 24, 1
   8              		.eabi_attribute 25, 1
   9              		.eabi_attribute 26, 1
  10              		.eabi_attribute 30, 1
  11              		.eabi_attribute 34, 1
  12              		.eabi_attribute 18, 4
  13              		.thumb
  14              		.syntax unified
  15              		.file	"CAN_TX_RX_func.c"
  16              		.text
  17              	.Ltext0:
  18              		.cfi_sections	.debug_frame
  19              		.section	.text.CAN_SendMsg,"ax",%progbits
  20              		.align	2
  21              		.global	CAN_SendMsg
  22              		.thumb
  23              		.thumb_func
  24              		.type	CAN_SendMsg, %function
  25              	CAN_SendMsg:
  26              	.LFB0:
  27              		.file 1 "Generated_Source\\PSoC5\\CAN_TX_RX_func.c"
   1:Generated_Source\PSoC5/CAN_TX_RX_func.c **** /*******************************************************************************
   2:Generated_Source\PSoC5/CAN_TX_RX_func.c **** * File Name: CAN_TX_RX_func.c
   3:Generated_Source\PSoC5/CAN_TX_RX_func.c **** * Version 3.0
   4:Generated_Source\PSoC5/CAN_TX_RX_func.c **** *
   5:Generated_Source\PSoC5/CAN_TX_RX_func.c **** * Description:
   6:Generated_Source\PSoC5/CAN_TX_RX_func.c **** *  There are functions process "Full" Receive and Transmit mailboxes:
   7:Generated_Source\PSoC5/CAN_TX_RX_func.c **** *     - CAN_SendMsg0-7();
   8:Generated_Source\PSoC5/CAN_TX_RX_func.c **** *     - CAN_ReceiveMsg0-15();
   9:Generated_Source\PSoC5/CAN_TX_RX_func.c **** *  Transmission of message, and receive routine for "Basic" mailboxes:
  10:Generated_Source\PSoC5/CAN_TX_RX_func.c **** *     - CAN_SendMsg();
  11:Generated_Source\PSoC5/CAN_TX_RX_func.c **** *     - CAN_TxCancel();
  12:Generated_Source\PSoC5/CAN_TX_RX_func.c **** *     - CAN_ReceiveMsg();
  13:Generated_Source\PSoC5/CAN_TX_RX_func.c **** *
  14:Generated_Source\PSoC5/CAN_TX_RX_func.c **** *  Note:
  15:Generated_Source\PSoC5/CAN_TX_RX_func.c **** *   None
  16:Generated_Source\PSoC5/CAN_TX_RX_func.c **** *
  17:Generated_Source\PSoC5/CAN_TX_RX_func.c **** ********************************************************************************
  18:Generated_Source\PSoC5/CAN_TX_RX_func.c **** * Copyright 2008-2015, Cypress Semiconductor Corporation.  All rights reserved.
  19:Generated_Source\PSoC5/CAN_TX_RX_func.c **** * You may use this file only in accordance with the license, terms, conditions,
  20:Generated_Source\PSoC5/CAN_TX_RX_func.c **** * disclaimers, and limitations in the end user license agreement accompanying
  21:Generated_Source\PSoC5/CAN_TX_RX_func.c **** * the software package with which this file was provided.
  22:Generated_Source\PSoC5/CAN_TX_RX_func.c **** *******************************************************************************/
  23:Generated_Source\PSoC5/CAN_TX_RX_func.c **** 
  24:Generated_Source\PSoC5/CAN_TX_RX_func.c **** #include "CAN.h"
  25:Generated_Source\PSoC5/CAN_TX_RX_func.c **** #include "cyapicallbacks.h"
  26:Generated_Source\PSoC5/CAN_TX_RX_func.c **** 
  27:Generated_Source\PSoC5/CAN_TX_RX_func.c **** /* `#START TX_RX_FUNCTION` */
  28:Generated_Source\PSoC5/CAN_TX_RX_func.c **** extern volatile uint8_t SET_INTERLOCK;
  29:Generated_Source\PSoC5/CAN_TX_RX_func.c **** extern volatile uint8_t HV_REQUEST_MC;
  30:Generated_Source\PSoC5/CAN_TX_RX_func.c **** extern volatile uint8_t STATE;
ARM GAS  C:\Users\leoja\AppData\Local\Temp\ccKgfOkx.s 			page 2


  31:Generated_Source\PSoC5/CAN_TX_RX_func.c **** extern volatile uint8_t THROTTLE;
  32:Generated_Source\PSoC5/CAN_TX_RX_func.c **** 
  33:Generated_Source\PSoC5/CAN_TX_RX_func.c **** extern volatile uint8_t HV_REQUEST_TR;
  34:Generated_Source\PSoC5/CAN_TX_RX_func.c **** extern volatile uint8_t VEHICLE_STATE;
  35:Generated_Source\PSoC5/CAN_TX_RX_func.c **** 
  36:Generated_Source\PSoC5/CAN_TX_RX_func.c **** extern volatile uint8_t ESTOP_MC;
  37:Generated_Source\PSoC5/CAN_TX_RX_func.c **** 
  38:Generated_Source\PSoC5/CAN_TX_RX_func.c **** extern volatile uint8_t THROTTLE_HIGH;
  39:Generated_Source\PSoC5/CAN_TX_RX_func.c **** extern volatile uint8_t THROTTLE_LOW;
  40:Generated_Source\PSoC5/CAN_TX_RX_func.c **** 
  41:Generated_Source\PSoC5/CAN_TX_RX_func.c **** extern volatile uint8_t POST_FAULT_LO_1;
  42:Generated_Source\PSoC5/CAN_TX_RX_func.c **** extern volatile uint8_t POST_FAULT_LO_2;
  43:Generated_Source\PSoC5/CAN_TX_RX_func.c **** extern volatile uint8_t POST_FAULT_HI_1;
  44:Generated_Source\PSoC5/CAN_TX_RX_func.c **** extern volatile uint8_t POST_FAULT_HI_2;
  45:Generated_Source\PSoC5/CAN_TX_RX_func.c **** 
  46:Generated_Source\PSoC5/CAN_TX_RX_func.c **** extern volatile uint8_t RUN_FAULT_LO_1;
  47:Generated_Source\PSoC5/CAN_TX_RX_func.c **** extern volatile uint8_t RUN_FAULT_LO_2;
  48:Generated_Source\PSoC5/CAN_TX_RX_func.c **** extern volatile uint8_t RUN_FAULT_HI_1;
  49:Generated_Source\PSoC5/CAN_TX_RX_func.c **** extern volatile uint8_t RUN_FAULT_HI_2;
  50:Generated_Source\PSoC5/CAN_TX_RX_func.c **** 
  51:Generated_Source\PSoC5/CAN_TX_RX_func.c **** extern volatile uint8_t MC_VOLTAGE_UPPER;
  52:Generated_Source\PSoC5/CAN_TX_RX_func.c **** extern volatile uint8_t MC_VOLTAGE_LOWER;
  53:Generated_Source\PSoC5/CAN_TX_RX_func.c **** 
  54:Generated_Source\PSoC5/CAN_TX_RX_func.c **** /* `#END` */
  55:Generated_Source\PSoC5/CAN_TX_RX_func.c **** 
  56:Generated_Source\PSoC5/CAN_TX_RX_func.c **** 
  57:Generated_Source\PSoC5/CAN_TX_RX_func.c **** /*******************************************************************************
  58:Generated_Source\PSoC5/CAN_TX_RX_func.c **** * FUNCTION NAME:   CAN_SendMsg
  59:Generated_Source\PSoC5/CAN_TX_RX_func.c **** ********************************************************************************
  60:Generated_Source\PSoC5/CAN_TX_RX_func.c **** *
  61:Generated_Source\PSoC5/CAN_TX_RX_func.c **** * Summary:
  62:Generated_Source\PSoC5/CAN_TX_RX_func.c **** *  This function is Send Message from one of Basic mailboxes. The function loops
  63:Generated_Source\PSoC5/CAN_TX_RX_func.c **** *  through the transmit message buffer designed as Basic CAN mailboxes for the
  64:Generated_Source\PSoC5/CAN_TX_RX_func.c **** *  first free available and sends from it. The number of retries is limited.
  65:Generated_Source\PSoC5/CAN_TX_RX_func.c **** *
  66:Generated_Source\PSoC5/CAN_TX_RX_func.c **** * Parameters:
  67:Generated_Source\PSoC5/CAN_TX_RX_func.c **** *  message: The pointer to a structure that contains all required data to send
  68:Generated_Source\PSoC5/CAN_TX_RX_func.c **** *           messages.
  69:Generated_Source\PSoC5/CAN_TX_RX_func.c **** *
  70:Generated_Source\PSoC5/CAN_TX_RX_func.c **** * Return:
  71:Generated_Source\PSoC5/CAN_TX_RX_func.c **** *  Indication if message has been sent.
  72:Generated_Source\PSoC5/CAN_TX_RX_func.c **** *   Define                             Description
  73:Generated_Source\PSoC5/CAN_TX_RX_func.c **** *    CYRET_SUCCESS                      The function passed successfully
  74:Generated_Source\PSoC5/CAN_TX_RX_func.c **** *    CAN_FAIL              The function failed
  75:Generated_Source\PSoC5/CAN_TX_RX_func.c **** *
  76:Generated_Source\PSoC5/CAN_TX_RX_func.c **** *******************************************************************************/
  77:Generated_Source\PSoC5/CAN_TX_RX_func.c **** uint8 CAN_SendMsg(const CAN_TX_MSG *message) 
  78:Generated_Source\PSoC5/CAN_TX_RX_func.c **** {
  28              		.loc 1 78 0
  29              		.cfi_startproc
  30              		@ args = 0, pretend = 0, frame = 0
  31              		@ frame_needed = 0, uses_anonymous_args = 0
  32              	.LVL0:
  33 0000 F0B5     		push	{r4, r5, r6, r7, lr}
  34              		.cfi_def_cfa_offset 20
  35              		.cfi_offset 4, -20
  36              		.cfi_offset 5, -16
ARM GAS  C:\Users\leoja\AppData\Local\Temp\ccKgfOkx.s 			page 3


  37              		.cfi_offset 6, -12
  38              		.cfi_offset 7, -8
  39              		.cfi_offset 14, -4
  40              	.LVL1:
  79:Generated_Source\PSoC5/CAN_TX_RX_func.c ****     uint8 i, j, shift;
  80:Generated_Source\PSoC5/CAN_TX_RX_func.c ****     uint8 retry = 0u;
  81:Generated_Source\PSoC5/CAN_TX_RX_func.c ****     uint8 result = CAN_FAIL;
  41              		.loc 1 81 0
  42 0002 0121     		movs	r1, #1
  80:Generated_Source\PSoC5/CAN_TX_RX_func.c ****     uint8 result = CAN_FAIL;
  43              		.loc 1 80 0
  44 0004 0026     		movs	r6, #0
  82:Generated_Source\PSoC5/CAN_TX_RX_func.c ****     uint32 regTemp;
  83:Generated_Source\PSoC5/CAN_TX_RX_func.c **** 
  84:Generated_Source\PSoC5/CAN_TX_RX_func.c ****     while (retry < CAN_RETRY_NUMBER)
  45              		.loc 1 84 0
  46 0006 5DE0     		b	.L2
  47              	.LVL2:
  48              	.L16:
  85:Generated_Source\PSoC5/CAN_TX_RX_func.c ****     {
  86:Generated_Source\PSoC5/CAN_TX_RX_func.c ****         shift = 1u;    /* Start from first mailbox */
  87:Generated_Source\PSoC5/CAN_TX_RX_func.c ****         for (i = 0u; i < CAN_NUMBER_OF_TX_MAILBOXES; i++)
  88:Generated_Source\PSoC5/CAN_TX_RX_func.c ****         {
  89:Generated_Source\PSoC5/CAN_TX_RX_func.c ****             /* Find Basic TX mailboxes */
  90:Generated_Source\PSoC5/CAN_TX_RX_func.c ****             if ((CAN_TX_MAILBOX_TYPE & shift) == 0u)
  49              		.loc 1 90 0
  50 0008 17F00F0F 		tst	r7, #15
  51 000c 4DD1     		bne	.L3
  91:Generated_Source\PSoC5/CAN_TX_RX_func.c ****             {
  92:Generated_Source\PSoC5/CAN_TX_RX_func.c ****                 /* Find free mailbox */
  93:Generated_Source\PSoC5/CAN_TX_RX_func.c ****                 #if (CY_PSOC3 || CY_PSOC5)
  94:Generated_Source\PSoC5/CAN_TX_RX_func.c ****                     if ((CAN_BUF_SR_REG.byte[2] & shift) == 0u)
  52              		.loc 1 94 0
  53 000e 2F4B     		ldr	r3, .L22
  54 0010 9B78     		ldrb	r3, [r3, #2]	@ zero_extendqisi2
  55 0012 3B42     		tst	r3, r7
  56 0014 49D1     		bne	.L3
  57              	.LVL3:
  95:Generated_Source\PSoC5/CAN_TX_RX_func.c ****                 #else  /* CY_PSOC4 */
  96:Generated_Source\PSoC5/CAN_TX_RX_func.c ****                     if ((CAN_BUF_SR_REG &
  97:Generated_Source\PSoC5/CAN_TX_RX_func.c ****                         (uint32) ((uint32) shift << CAN_TWO_BYTE_OFFSET)) == 0u)
  98:Generated_Source\PSoC5/CAN_TX_RX_func.c ****                 #endif /* CY_PSOC3 || CY_PSOC5 */
  99:Generated_Source\PSoC5/CAN_TX_RX_func.c ****                     {
 100:Generated_Source\PSoC5/CAN_TX_RX_func.c ****                         regTemp = 0u;
 101:Generated_Source\PSoC5/CAN_TX_RX_func.c **** 
 102:Generated_Source\PSoC5/CAN_TX_RX_func.c ****                         /* Set message parameters */
 103:Generated_Source\PSoC5/CAN_TX_RX_func.c ****                         if (message->rtr != CAN_STANDARD_MESSAGE)
  58              		.loc 1 103 0
  59 0016 0379     		ldrb	r3, [r0, #4]	@ zero_extendqisi2
  60 0018 0BB1     		cbz	r3, .L4
 104:Generated_Source\PSoC5/CAN_TX_RX_func.c ****                         {
 105:Generated_Source\PSoC5/CAN_TX_RX_func.c ****                             regTemp = CAN_TX_RTR_MASK;    /* RTR message Enable */
  61              		.loc 1 105 0
  62 001a 4FF40013 		mov	r3, #2097152
  63              	.L4:
  64              	.LVL4:
 106:Generated_Source\PSoC5/CAN_TX_RX_func.c ****                         }
ARM GAS  C:\Users\leoja\AppData\Local\Temp\ccKgfOkx.s 			page 4


 107:Generated_Source\PSoC5/CAN_TX_RX_func.c **** 
 108:Generated_Source\PSoC5/CAN_TX_RX_func.c ****                         if (message->ide == CAN_STANDARD_MESSAGE)
  65              		.loc 1 108 0
  66 001e 4179     		ldrb	r1, [r0, #5]	@ zero_extendqisi2
  67              	.LVL5:
  68 0020 31B9     		cbnz	r1, .L5
 109:Generated_Source\PSoC5/CAN_TX_RX_func.c ****                         {
 110:Generated_Source\PSoC5/CAN_TX_RX_func.c ****                             CAN_SET_TX_ID_STANDARD_MSG(i, message->id);
  69              		.loc 1 110 0
  70 0022 2B49     		ldr	r1, .L22+4
  71 0024 01EB0211 		add	r1, r1, r2, lsl #4
  72 0028 0468     		ldr	r4, [r0]
  73 002a 6405     		lsls	r4, r4, #21
  74 002c 4C60     		str	r4, [r1, #4]
  75 002e 07E0     		b	.L6
  76              	.L5:
 111:Generated_Source\PSoC5/CAN_TX_RX_func.c ****                         }
 112:Generated_Source\PSoC5/CAN_TX_RX_func.c ****                         else
 113:Generated_Source\PSoC5/CAN_TX_RX_func.c ****                         {
 114:Generated_Source\PSoC5/CAN_TX_RX_func.c ****                             regTemp |= CAN_TX_IDE_MASK;
  77              		.loc 1 114 0
  78 0030 43F48013 		orr	r3, r3, #1048576
  79              	.LVL6:
 115:Generated_Source\PSoC5/CAN_TX_RX_func.c ****                             CAN_SET_TX_ID_EXTENDED_MSG(i, message->id);
  80              		.loc 1 115 0
  81 0034 2649     		ldr	r1, .L22+4
  82 0036 01EB0211 		add	r1, r1, r2, lsl #4
  83 003a 0468     		ldr	r4, [r0]
  84 003c E400     		lsls	r4, r4, #3
  85 003e 4C60     		str	r4, [r1, #4]
  86              	.L6:
 116:Generated_Source\PSoC5/CAN_TX_RX_func.c ****                         }
 117:Generated_Source\PSoC5/CAN_TX_RX_func.c **** 
 118:Generated_Source\PSoC5/CAN_TX_RX_func.c ****                         if (message->dlc < CAN_TX_DLC_MAX_VALUE)
  87              		.loc 1 118 0
  88 0040 90F806E0 		ldrb	lr, [r0, #6]	@ zero_extendqisi2
  89 0044 BEF1070F 		cmp	lr, #7
  90 0048 02D8     		bhi	.L7
 119:Generated_Source\PSoC5/CAN_TX_RX_func.c ****                         {
 120:Generated_Source\PSoC5/CAN_TX_RX_func.c ****                             regTemp |= ((uint32) message->dlc) << CAN_TWO_BYTE_OFFSET;
  91              		.loc 1 120 0
  92 004a 43EA0E4E 		orr	lr, r3, lr, lsl #16
  93              	.LVL7:
  94 004e 01E0     		b	.L8
  95              	.LVL8:
  96              	.L7:
 121:Generated_Source\PSoC5/CAN_TX_RX_func.c ****                         }
 122:Generated_Source\PSoC5/CAN_TX_RX_func.c ****                         else
 123:Generated_Source\PSoC5/CAN_TX_RX_func.c ****                         {
 124:Generated_Source\PSoC5/CAN_TX_RX_func.c ****                             regTemp |= CAN_TX_DLC_UPPER_VALUE;
  97              		.loc 1 124 0
  98 0050 43F4002E 		orr	lr, r3, #524288
  99              	.LVL9:
 100              	.L8:
 125:Generated_Source\PSoC5/CAN_TX_RX_func.c ****                         }
 126:Generated_Source\PSoC5/CAN_TX_RX_func.c **** 
 127:Generated_Source\PSoC5/CAN_TX_RX_func.c ****                         if (message->irq != CAN_TRANSMIT_INT_DISABLE)
ARM GAS  C:\Users\leoja\AppData\Local\Temp\ccKgfOkx.s 			page 5


 101              		.loc 1 127 0
 102 0054 C379     		ldrb	r3, [r0, #7]	@ zero_extendqisi2
 103 0056 0BB1     		cbz	r3, .L9
 128:Generated_Source\PSoC5/CAN_TX_RX_func.c ****                         {
 129:Generated_Source\PSoC5/CAN_TX_RX_func.c ****                             regTemp |= CAN_TX_INT_ENABLE_MASK;    /* Transmit Interrupt Enable */
 104              		.loc 1 129 0
 105 0058 4EF0040E 		orr	lr, lr, #4
 106              	.LVL10:
 107              	.L9:
 130:Generated_Source\PSoC5/CAN_TX_RX_func.c ****                         }
 131:Generated_Source\PSoC5/CAN_TX_RX_func.c **** 
 132:Generated_Source\PSoC5/CAN_TX_RX_func.c ****                         for (j = 0u; (j < message->dlc) && (j < CAN_TX_DLC_MAX_VALUE); j++)
 108              		.loc 1 132 0
 109 005c 0023     		movs	r3, #0
 110 005e 0FE0     		b	.L10
 111              	.LVL11:
 112              	.L14:
 133:Generated_Source\PSoC5/CAN_TX_RX_func.c ****                         {
 134:Generated_Source\PSoC5/CAN_TX_RX_func.c ****                             #if (CY_PSOC3 || CY_PSOC5)
 135:Generated_Source\PSoC5/CAN_TX_RX_func.c ****                                 CAN_TX_DATA_BYTE(i, j) = message->msg->byte[j];
 113              		.loc 1 135 0
 114 0060 1B49     		ldr	r1, .L22+4
 115 0062 01EB0214 		add	r4, r1, r2, lsl #4
 116 0066 032B     		cmp	r3, #3
 117 0068 02D9     		bls	.L11
 118              		.loc 1 135 0 is_stmt 0 discriminator 1
 119 006a C3F10B01 		rsb	r1, r3, #11
 120 006e 01E0     		b	.L12
 121              	.L11:
 122              		.loc 1 135 0 discriminator 2
 123 0070 C3F10301 		rsb	r1, r3, #3
 124              	.L12:
 125              		.loc 1 135 0 discriminator 4
 126 0074 8568     		ldr	r5, [r0, #8]
 127 0076 ED5C     		ldrb	r5, [r5, r3]	@ zero_extendqisi2
 128 0078 2144     		add	r1, r1, r4
 129 007a 0D72     		strb	r5, [r1, #8]
 132:Generated_Source\PSoC5/CAN_TX_RX_func.c ****                         {
 130              		.loc 1 132 0 is_stmt 1 discriminator 4
 131 007c 0133     		adds	r3, r3, #1
 132              	.LVL12:
 133 007e DBB2     		uxtb	r3, r3
 134              	.LVL13:
 135              	.L10:
 132:Generated_Source\PSoC5/CAN_TX_RX_func.c ****                         {
 136              		.loc 1 132 0 is_stmt 0 discriminator 2
 137 0080 8179     		ldrb	r1, [r0, #6]	@ zero_extendqisi2
 138 0082 8B42     		cmp	r3, r1
 139 0084 01D2     		bcs	.L13
 132:Generated_Source\PSoC5/CAN_TX_RX_func.c ****                         {
 140              		.loc 1 132 0 discriminator 3
 141 0086 072B     		cmp	r3, #7
 142 0088 EAD9     		bls	.L14
 143              	.L13:
 136:Generated_Source\PSoC5/CAN_TX_RX_func.c ****                             #else /* CY_PSOC4 */
 137:Generated_Source\PSoC5/CAN_TX_RX_func.c ****                                 CAN_TX_DATA_BYTE(i, j, message->msg->byte[j]);
 138:Generated_Source\PSoC5/CAN_TX_RX_func.c ****                             #endif /* CY_PSOC3 || CY_PSOC5 */
ARM GAS  C:\Users\leoja\AppData\Local\Temp\ccKgfOkx.s 			page 6


 139:Generated_Source\PSoC5/CAN_TX_RX_func.c ****                         }
 140:Generated_Source\PSoC5/CAN_TX_RX_func.c **** 
 141:Generated_Source\PSoC5/CAN_TX_RX_func.c ****                         /* Disable isr */
 142:Generated_Source\PSoC5/CAN_TX_RX_func.c ****     CyIntDisable(CAN_ISR_NUMBER);
 144              		.loc 1 142 0 is_stmt 1
 145 008a 4FF48034 		mov	r4, #65536
 146 008e 114B     		ldr	r3, .L22+8
 147              	.LVL14:
 148 0090 1C60     		str	r4, [r3]
 143:Generated_Source\PSoC5/CAN_TX_RX_func.c **** 
 144:Generated_Source\PSoC5/CAN_TX_RX_func.c ****                         /* WPN[23] and WPN[3] set to 1 for write to CAN Control reg */
 145:Generated_Source\PSoC5/CAN_TX_RX_func.c ****                         CY_SET_REG32(CAN_TX_CMD_PTR(i), (regTemp | CAN_TX_WPN_SET));
 149              		.loc 1 145 0
 150 0092 1101     		lsls	r1, r2, #4
 151 0094 0E4D     		ldr	r5, .L22+4
 152 0096 4EF40003 		orr	r3, lr, #8388608
 153 009a 43F00803 		orr	r3, r3, #8
 154 009e 4B51     		str	r3, [r1, r5]
 146:Generated_Source\PSoC5/CAN_TX_RX_func.c **** 
 147:Generated_Source\PSoC5/CAN_TX_RX_func.c ****                         #if (CY_PSOC3 || CY_PSOC5)
 148:Generated_Source\PSoC5/CAN_TX_RX_func.c ****                             CY_SET_REG32(CAN_TX_CMD_PTR(i), CAN_SEND_MESSAGE);
 155              		.loc 1 148 0
 156 00a0 0123     		movs	r3, #1
 157 00a2 4B51     		str	r3, [r1, r5]
 149:Generated_Source\PSoC5/CAN_TX_RX_func.c ****                         #else /* CY_PSOC4 */
 150:Generated_Source\PSoC5/CAN_TX_RX_func.c ****                             if (message->sst != CAN_STANDARD_MESSAGE)
 151:Generated_Source\PSoC5/CAN_TX_RX_func.c ****                             {
 152:Generated_Source\PSoC5/CAN_TX_RX_func.c ****                                 /* Single Shot Transmission */
 153:Generated_Source\PSoC5/CAN_TX_RX_func.c ****                                 CAN_TX_CMD_REG(i) |= CAN_SEND_MESSAGE |
 154:Generated_Source\PSoC5/CAN_TX_RX_func.c ****                                 CAN_TX_ABORT_MASK;
 155:Generated_Source\PSoC5/CAN_TX_RX_func.c ****                             }
 156:Generated_Source\PSoC5/CAN_TX_RX_func.c ****                             else
 157:Generated_Source\PSoC5/CAN_TX_RX_func.c ****                             {
 158:Generated_Source\PSoC5/CAN_TX_RX_func.c ****                                 CAN_TX_CMD_REG(i) |= CAN_SEND_MESSAGE;
 159:Generated_Source\PSoC5/CAN_TX_RX_func.c ****                             }
 160:Generated_Source\PSoC5/CAN_TX_RX_func.c ****                         #endif /* CY_PSOC3 || CY_PSOC5 */
 161:Generated_Source\PSoC5/CAN_TX_RX_func.c **** 
 162:Generated_Source\PSoC5/CAN_TX_RX_func.c ****                         /* Enable isr */
 163:Generated_Source\PSoC5/CAN_TX_RX_func.c ****     CyIntEnable(CAN_ISR_NUMBER);
 158              		.loc 1 163 0
 159 00a4 0C4B     		ldr	r3, .L22+12
 160 00a6 1C60     		str	r4, [r3]
 161              	.LVL15:
 164:Generated_Source\PSoC5/CAN_TX_RX_func.c **** 
 165:Generated_Source\PSoC5/CAN_TX_RX_func.c ****                         result = CYRET_SUCCESS;
 162              		.loc 1 165 0
 163 00a8 0021     		movs	r1, #0
 164              	.LVL16:
 165              	.L3:
 166:Generated_Source\PSoC5/CAN_TX_RX_func.c ****                     }
 167:Generated_Source\PSoC5/CAN_TX_RX_func.c ****             }
 168:Generated_Source\PSoC5/CAN_TX_RX_func.c ****             shift <<= 1u;
 166              		.loc 1 168 0
 167 00aa 7B00     		lsls	r3, r7, #1
 168 00ac DFB2     		uxtb	r7, r3
 169              	.LVL17:
 169:Generated_Source\PSoC5/CAN_TX_RX_func.c ****             if (result == CYRET_SUCCESS)
ARM GAS  C:\Users\leoja\AppData\Local\Temp\ccKgfOkx.s 			page 7


 170              		.loc 1 169 0
 171 00ae 31B1     		cbz	r1, .L15
  87:Generated_Source\PSoC5/CAN_TX_RX_func.c ****         {
 172              		.loc 1 87 0 discriminator 2
 173 00b0 0132     		adds	r2, r2, #1
 174              	.LVL18:
 175 00b2 D2B2     		uxtb	r2, r2
 176              	.LVL19:
 177 00b4 01E0     		b	.L18
 178              	.LVL20:
 179              	.L20:
 180 00b6 0127     		movs	r7, #1
 181 00b8 0022     		movs	r2, #0
 182              	.L18:
 183              	.LVL21:
  87:Generated_Source\PSoC5/CAN_TX_RX_func.c ****         {
 184              		.loc 1 87 0 is_stmt 0 discriminator 1
 185 00ba 072A     		cmp	r2, #7
 186 00bc A4D9     		bls	.L16
 187              	.L15:
 170:Generated_Source\PSoC5/CAN_TX_RX_func.c ****             {
 171:Generated_Source\PSoC5/CAN_TX_RX_func.c ****                 break;
 172:Generated_Source\PSoC5/CAN_TX_RX_func.c ****             }
 173:Generated_Source\PSoC5/CAN_TX_RX_func.c ****         }
 174:Generated_Source\PSoC5/CAN_TX_RX_func.c ****         if (result == CYRET_SUCCESS)
 188              		.loc 1 174 0 is_stmt 1
 189 00be 19B1     		cbz	r1, .L17
 175:Generated_Source\PSoC5/CAN_TX_RX_func.c ****         {
 176:Generated_Source\PSoC5/CAN_TX_RX_func.c ****             break;
 177:Generated_Source\PSoC5/CAN_TX_RX_func.c ****         }
 178:Generated_Source\PSoC5/CAN_TX_RX_func.c ****         else
 179:Generated_Source\PSoC5/CAN_TX_RX_func.c ****         {
 180:Generated_Source\PSoC5/CAN_TX_RX_func.c ****             retry++;
 190              		.loc 1 180 0
 191 00c0 0136     		adds	r6, r6, #1
 192              	.LVL22:
 193 00c2 F6B2     		uxtb	r6, r6
 194              	.LVL23:
 195              	.L2:
  84:Generated_Source\PSoC5/CAN_TX_RX_func.c ****     {
 196              		.loc 1 84 0
 197 00c4 022E     		cmp	r6, #2
 198 00c6 F6D9     		bls	.L20
 199              	.L17:
 181:Generated_Source\PSoC5/CAN_TX_RX_func.c ****         }
 182:Generated_Source\PSoC5/CAN_TX_RX_func.c ****     }
 183:Generated_Source\PSoC5/CAN_TX_RX_func.c **** 
 184:Generated_Source\PSoC5/CAN_TX_RX_func.c ****     return (result);
 185:Generated_Source\PSoC5/CAN_TX_RX_func.c **** }
 200              		.loc 1 185 0
 201 00c8 0846     		mov	r0, r1
 202              	.LVL24:
 203 00ca F0BD     		pop	{r4, r5, r6, r7, pc}
 204              	.LVL25:
 205              	.L23:
 206              		.align	2
 207              	.L22:
ARM GAS  C:\Users\leoja\AppData\Local\Temp\ccKgfOkx.s 			page 8


 208 00cc 08A00040 		.word	1073782792
 209 00d0 20A00040 		.word	1073782816
 210 00d4 80E100E0 		.word	-536813184
 211 00d8 00E100E0 		.word	-536813312
 212              		.cfi_endproc
 213              	.LFE0:
 214              		.size	CAN_SendMsg, .-CAN_SendMsg
 215              		.section	.text.CAN_TxCancel,"ax",%progbits
 216              		.align	2
 217              		.global	CAN_TxCancel
 218              		.thumb
 219              		.thumb_func
 220              		.type	CAN_TxCancel, %function
 221              	CAN_TxCancel:
 222              	.LFB1:
 186:Generated_Source\PSoC5/CAN_TX_RX_func.c **** 
 187:Generated_Source\PSoC5/CAN_TX_RX_func.c **** 
 188:Generated_Source\PSoC5/CAN_TX_RX_func.c **** /*******************************************************************************
 189:Generated_Source\PSoC5/CAN_TX_RX_func.c **** * FUNCTION NAME:   CAN_TxCancel
 190:Generated_Source\PSoC5/CAN_TX_RX_func.c **** ********************************************************************************
 191:Generated_Source\PSoC5/CAN_TX_RX_func.c **** *
 192:Generated_Source\PSoC5/CAN_TX_RX_func.c **** * Summary:
 193:Generated_Source\PSoC5/CAN_TX_RX_func.c **** *  This function cancels transmission of a message that has been queued to be
 194:Generated_Source\PSoC5/CAN_TX_RX_func.c **** *  transmitted. Values between 0 and 7 are valid.
 195:Generated_Source\PSoC5/CAN_TX_RX_func.c **** *
 196:Generated_Source\PSoC5/CAN_TX_RX_func.c **** * Parameters:
 197:Generated_Source\PSoC5/CAN_TX_RX_func.c **** *  bufferId: The mailbox number.
 198:Generated_Source\PSoC5/CAN_TX_RX_func.c **** *
 199:Generated_Source\PSoC5/CAN_TX_RX_func.c **** * Return:
 200:Generated_Source\PSoC5/CAN_TX_RX_func.c **** *  None.
 201:Generated_Source\PSoC5/CAN_TX_RX_func.c **** *
 202:Generated_Source\PSoC5/CAN_TX_RX_func.c **** *******************************************************************************/
 203:Generated_Source\PSoC5/CAN_TX_RX_func.c **** void CAN_TxCancel(uint8 bufferId) 
 204:Generated_Source\PSoC5/CAN_TX_RX_func.c **** {
 223              		.loc 1 204 0
 224              		.cfi_startproc
 225              		@ args = 0, pretend = 0, frame = 0
 226              		@ frame_needed = 0, uses_anonymous_args = 0
 227              		@ link register save eliminated.
 228              	.LVL26:
 205:Generated_Source\PSoC5/CAN_TX_RX_func.c ****     if (bufferId < CAN_NUMBER_OF_TX_MAILBOXES)
 229              		.loc 1 205 0
 230 0000 0728     		cmp	r0, #7
 231 0002 07D8     		bhi	.L24
 206:Generated_Source\PSoC5/CAN_TX_RX_func.c ****     {
 207:Generated_Source\PSoC5/CAN_TX_RX_func.c ****         CAN_TX_ABORT_MESSAGE(bufferId);
 232              		.loc 1 207 0
 233 0004 0001     		lsls	r0, r0, #4
 234              	.LVL27:
 235 0006 044A     		ldr	r2, .L26
 236 0008 835C     		ldrb	r3, [r0, r2]	@ zero_extendqisi2
 237 000a 03F0FC03 		and	r3, r3, #252
 238 000e 43F00203 		orr	r3, r3, #2
 239 0012 8354     		strb	r3, [r0, r2]
 240              	.L24:
 241 0014 7047     		bx	lr
 242              	.L27:
ARM GAS  C:\Users\leoja\AppData\Local\Temp\ccKgfOkx.s 			page 9


 243 0016 00BF     		.align	2
 244              	.L26:
 245 0018 20A00040 		.word	1073782816
 246              		.cfi_endproc
 247              	.LFE1:
 248              		.size	CAN_TxCancel, .-CAN_TxCancel
 249              		.section	.text.CAN_SendMsgTORQUE_REQUEST_COMMAND,"ax",%progbits
 250              		.align	2
 251              		.global	CAN_SendMsgTORQUE_REQUEST_COMMAND
 252              		.thumb
 253              		.thumb_func
 254              		.type	CAN_SendMsgTORQUE_REQUEST_COMMAND, %function
 255              	CAN_SendMsgTORQUE_REQUEST_COMMAND:
 256              	.LFB2:
 208:Generated_Source\PSoC5/CAN_TX_RX_func.c ****     }
 209:Generated_Source\PSoC5/CAN_TX_RX_func.c **** }
 210:Generated_Source\PSoC5/CAN_TX_RX_func.c **** 
 211:Generated_Source\PSoC5/CAN_TX_RX_func.c **** 
 212:Generated_Source\PSoC5/CAN_TX_RX_func.c **** #if (CAN_TX0_FUNC_ENABLE)
 213:Generated_Source\PSoC5/CAN_TX_RX_func.c ****     /*******************************************************************************
 214:Generated_Source\PSoC5/CAN_TX_RX_func.c ****     * FUNCTION NAME:   CAN_SendMsgTORQUE_REQUEST_COMMAND
 215:Generated_Source\PSoC5/CAN_TX_RX_func.c ****     ********************************************************************************
 216:Generated_Source\PSoC5/CAN_TX_RX_func.c ****     *
 217:Generated_Source\PSoC5/CAN_TX_RX_func.c ****     * Summary:
 218:Generated_Source\PSoC5/CAN_TX_RX_func.c ****     *  This function is the entry point to Transmit Message 0. The function checks
 219:Generated_Source\PSoC5/CAN_TX_RX_func.c ****     *  if mailbox 0 doesn't already have un-transmitted messages waiting for
 220:Generated_Source\PSoC5/CAN_TX_RX_func.c ****     *  arbitration. If not initiate transmission of the message.
 221:Generated_Source\PSoC5/CAN_TX_RX_func.c ****     *  Generated only for the Transmit mailbox designed as Full.
 222:Generated_Source\PSoC5/CAN_TX_RX_func.c ****     *
 223:Generated_Source\PSoC5/CAN_TX_RX_func.c ****     * Parameters:
 224:Generated_Source\PSoC5/CAN_TX_RX_func.c ****     *  None.
 225:Generated_Source\PSoC5/CAN_TX_RX_func.c ****     *
 226:Generated_Source\PSoC5/CAN_TX_RX_func.c ****     * Return:
 227:Generated_Source\PSoC5/CAN_TX_RX_func.c ****     *  Indication if Message has been sent.
 228:Generated_Source\PSoC5/CAN_TX_RX_func.c ****     *   Define                             Description
 229:Generated_Source\PSoC5/CAN_TX_RX_func.c ****     *    CYRET_SUCCESS                      The function passed successfully
 230:Generated_Source\PSoC5/CAN_TX_RX_func.c ****     *    CAN_FAIL              The function failed
 231:Generated_Source\PSoC5/CAN_TX_RX_func.c ****     *
 232:Generated_Source\PSoC5/CAN_TX_RX_func.c ****     *******************************************************************************/
 233:Generated_Source\PSoC5/CAN_TX_RX_func.c ****     uint8 CAN_SendMsgTORQUE_REQUEST_COMMAND(void) 
 234:Generated_Source\PSoC5/CAN_TX_RX_func.c ****     {
 257              		.loc 1 234 0
 258              		.cfi_startproc
 259              		@ args = 0, pretend = 0, frame = 0
 260              		@ frame_needed = 0, uses_anonymous_args = 0
 261              		@ link register save eliminated.
 262              	.LVL28:
 235:Generated_Source\PSoC5/CAN_TX_RX_func.c ****         uint8 result = CYRET_SUCCESS;
 236:Generated_Source\PSoC5/CAN_TX_RX_func.c **** 
 237:Generated_Source\PSoC5/CAN_TX_RX_func.c ****         #if (CY_PSOC3 || CY_PSOC5)
 238:Generated_Source\PSoC5/CAN_TX_RX_func.c ****             if ((CAN_TX[0u].txcmd.byte[0u] & CAN_TX_REQUEST_PENDING) != 0u)
 263              		.loc 1 238 0
 264 0000 064B     		ldr	r3, .L31
 265 0002 1B78     		ldrb	r3, [r3]	@ zero_extendqisi2
 266 0004 13F0010F 		tst	r3, #1
 267 0008 06D1     		bne	.L30
 239:Generated_Source\PSoC5/CAN_TX_RX_func.c ****         #else  /* CY_PSOC4 */
ARM GAS  C:\Users\leoja\AppData\Local\Temp\ccKgfOkx.s 			page 10


 240:Generated_Source\PSoC5/CAN_TX_RX_func.c ****             if ((CAN_TX_CMD_REG(0u) & CAN_TX_REQUEST_PENDING) != 0u)
 241:Generated_Source\PSoC5/CAN_TX_RX_func.c ****         #endif /* CY_PSOC3 || CY_PSOC5 */
 242:Generated_Source\PSoC5/CAN_TX_RX_func.c ****             {
 243:Generated_Source\PSoC5/CAN_TX_RX_func.c ****                 result = CAN_FAIL;
 244:Generated_Source\PSoC5/CAN_TX_RX_func.c ****             }
 245:Generated_Source\PSoC5/CAN_TX_RX_func.c ****             else
 246:Generated_Source\PSoC5/CAN_TX_RX_func.c ****             {
 247:Generated_Source\PSoC5/CAN_TX_RX_func.c ****                 /* `#START MESSAGE_TORQUE_REQUEST_COMMAND_TRASMITTED` */
 248:Generated_Source\PSoC5/CAN_TX_RX_func.c **** 
 249:Generated_Source\PSoC5/CAN_TX_RX_func.c ****                 /* `#END` */
 250:Generated_Source\PSoC5/CAN_TX_RX_func.c **** 
 251:Generated_Source\PSoC5/CAN_TX_RX_func.c ****                 #ifdef CAN_SEND_MSG_TORQUE_REQUEST_COMMAND_CALLBACK
 252:Generated_Source\PSoC5/CAN_TX_RX_func.c ****                     CAN_SendMsg_TORQUE_REQUEST_COMMAND_Callback();
 253:Generated_Source\PSoC5/CAN_TX_RX_func.c ****                 #endif /* CAN_SEND_MSG_TORQUE_REQUEST_COMMAND_CALLBACK */
 254:Generated_Source\PSoC5/CAN_TX_RX_func.c **** 
 255:Generated_Source\PSoC5/CAN_TX_RX_func.c ****                 CY_SET_REG32(CAN_TX_CMD_PTR(0u),
 268              		.loc 1 255 0
 269 000a 044A     		ldr	r2, .L31
 270 000c 1368     		ldr	r3, [r2]
 271 000e 43F00103 		orr	r3, r3, #1
 272 0012 1360     		str	r3, [r2]
 235:Generated_Source\PSoC5/CAN_TX_RX_func.c ****         uint8 result = CYRET_SUCCESS;
 273              		.loc 1 235 0
 274 0014 0020     		movs	r0, #0
 275 0016 7047     		bx	lr
 276              	.L30:
 243:Generated_Source\PSoC5/CAN_TX_RX_func.c ****             }
 277              		.loc 1 243 0
 278 0018 0120     		movs	r0, #1
 279              	.LVL29:
 256:Generated_Source\PSoC5/CAN_TX_RX_func.c ****                 CY_GET_REG32(CAN_TX_CMD_PTR(0u)) | CAN_SEND_MESSAGE);
 257:Generated_Source\PSoC5/CAN_TX_RX_func.c ****             }
 258:Generated_Source\PSoC5/CAN_TX_RX_func.c **** 
 259:Generated_Source\PSoC5/CAN_TX_RX_func.c ****         return (result);
 260:Generated_Source\PSoC5/CAN_TX_RX_func.c ****     }
 280              		.loc 1 260 0
 281 001a 7047     		bx	lr
 282              	.L32:
 283              		.align	2
 284              	.L31:
 285 001c 20A00040 		.word	1073782816
 286              		.cfi_endproc
 287              	.LFE2:
 288              		.size	CAN_SendMsgTORQUE_REQUEST_COMMAND, .-CAN_SendMsgTORQUE_REQUEST_COMMAND
 289              		.section	.text.CAN_SendMsgPEI_CURRENT,"ax",%progbits
 290              		.align	2
 291              		.global	CAN_SendMsgPEI_CURRENT
 292              		.thumb
 293              		.thumb_func
 294              		.type	CAN_SendMsgPEI_CURRENT, %function
 295              	CAN_SendMsgPEI_CURRENT:
 296              	.LFB3:
 261:Generated_Source\PSoC5/CAN_TX_RX_func.c **** #endif /* CAN_TX0_FUNC_ENABLE */
 262:Generated_Source\PSoC5/CAN_TX_RX_func.c **** 
 263:Generated_Source\PSoC5/CAN_TX_RX_func.c **** 
 264:Generated_Source\PSoC5/CAN_TX_RX_func.c **** #if (CAN_TX1_FUNC_ENABLE)
 265:Generated_Source\PSoC5/CAN_TX_RX_func.c ****     /*******************************************************************************
ARM GAS  C:\Users\leoja\AppData\Local\Temp\ccKgfOkx.s 			page 11


 266:Generated_Source\PSoC5/CAN_TX_RX_func.c ****     * FUNCTION NAME:   CAN_SendMsgPEI_CURRENT
 267:Generated_Source\PSoC5/CAN_TX_RX_func.c ****     ********************************************************************************
 268:Generated_Source\PSoC5/CAN_TX_RX_func.c ****     *
 269:Generated_Source\PSoC5/CAN_TX_RX_func.c ****     * Summary:
 270:Generated_Source\PSoC5/CAN_TX_RX_func.c ****     *  This function is the entry point to Transmit Message 1. The function checks
 271:Generated_Source\PSoC5/CAN_TX_RX_func.c ****     *  if mailbox 1 doesn't already have un-transmitted messages waiting for
 272:Generated_Source\PSoC5/CAN_TX_RX_func.c ****     *  arbitration. If not initiate transmission of the message.
 273:Generated_Source\PSoC5/CAN_TX_RX_func.c ****     *  Generated only for the Transmit mailbox designed as Full.
 274:Generated_Source\PSoC5/CAN_TX_RX_func.c ****     *
 275:Generated_Source\PSoC5/CAN_TX_RX_func.c ****     * Parameters:
 276:Generated_Source\PSoC5/CAN_TX_RX_func.c ****     *  None.
 277:Generated_Source\PSoC5/CAN_TX_RX_func.c ****     *
 278:Generated_Source\PSoC5/CAN_TX_RX_func.c ****     * Return:
 279:Generated_Source\PSoC5/CAN_TX_RX_func.c ****     *  Indication if Message has been sent.
 280:Generated_Source\PSoC5/CAN_TX_RX_func.c ****     *   Define                             Description
 281:Generated_Source\PSoC5/CAN_TX_RX_func.c ****     *    CYRET_SUCCESS                      The function passed successfully
 282:Generated_Source\PSoC5/CAN_TX_RX_func.c ****     *    CAN_FAIL              The function failed
 283:Generated_Source\PSoC5/CAN_TX_RX_func.c ****     *
 284:Generated_Source\PSoC5/CAN_TX_RX_func.c ****     *******************************************************************************/
 285:Generated_Source\PSoC5/CAN_TX_RX_func.c ****     uint8 CAN_SendMsgPEI_CURRENT(void) 
 286:Generated_Source\PSoC5/CAN_TX_RX_func.c ****     {
 297              		.loc 1 286 0
 298              		.cfi_startproc
 299              		@ args = 0, pretend = 0, frame = 0
 300              		@ frame_needed = 0, uses_anonymous_args = 0
 301              		@ link register save eliminated.
 302              	.LVL30:
 287:Generated_Source\PSoC5/CAN_TX_RX_func.c ****         uint8 result = CYRET_SUCCESS;
 288:Generated_Source\PSoC5/CAN_TX_RX_func.c **** 
 289:Generated_Source\PSoC5/CAN_TX_RX_func.c ****         #if (CY_PSOC3 || CY_PSOC5)
 290:Generated_Source\PSoC5/CAN_TX_RX_func.c ****             if ((CAN_TX[1u].txcmd.byte[0u] & CAN_TX_REQUEST_PENDING) != 0u)
 303              		.loc 1 290 0
 304 0000 064B     		ldr	r3, .L36
 305 0002 1B78     		ldrb	r3, [r3]	@ zero_extendqisi2
 306 0004 13F0010F 		tst	r3, #1
 307 0008 06D1     		bne	.L35
 291:Generated_Source\PSoC5/CAN_TX_RX_func.c ****         #else  /* CY_PSOC4 */
 292:Generated_Source\PSoC5/CAN_TX_RX_func.c ****             if ((CAN_TX_CMD_REG(1u) & CAN_TX_REQUEST_PENDING) != 0u)
 293:Generated_Source\PSoC5/CAN_TX_RX_func.c ****         #endif /* CY_PSOC3 || CY_PSOC5 */
 294:Generated_Source\PSoC5/CAN_TX_RX_func.c ****             {
 295:Generated_Source\PSoC5/CAN_TX_RX_func.c ****                 result = CAN_FAIL;
 296:Generated_Source\PSoC5/CAN_TX_RX_func.c ****             }
 297:Generated_Source\PSoC5/CAN_TX_RX_func.c ****             else
 298:Generated_Source\PSoC5/CAN_TX_RX_func.c ****             {
 299:Generated_Source\PSoC5/CAN_TX_RX_func.c ****                 /* `#START MESSAGE_PEI_CURRENT_TRASMITTED` */
 300:Generated_Source\PSoC5/CAN_TX_RX_func.c **** 
 301:Generated_Source\PSoC5/CAN_TX_RX_func.c ****                 /* `#END` */
 302:Generated_Source\PSoC5/CAN_TX_RX_func.c **** 
 303:Generated_Source\PSoC5/CAN_TX_RX_func.c ****                 #ifdef CAN_SEND_MSG_PEI_CURRENT_CALLBACK
 304:Generated_Source\PSoC5/CAN_TX_RX_func.c ****                     CAN_SendMsg_PEI_CURRENT_Callback();
 305:Generated_Source\PSoC5/CAN_TX_RX_func.c ****                 #endif /* CAN_SEND_MSG_PEI_CURRENT_CALLBACK */
 306:Generated_Source\PSoC5/CAN_TX_RX_func.c **** 
 307:Generated_Source\PSoC5/CAN_TX_RX_func.c ****                 CY_SET_REG32(CAN_TX_CMD_PTR(1u),
 308              		.loc 1 307 0
 309 000a 044A     		ldr	r2, .L36
 310 000c 1368     		ldr	r3, [r2]
 311 000e 43F00103 		orr	r3, r3, #1
ARM GAS  C:\Users\leoja\AppData\Local\Temp\ccKgfOkx.s 			page 12


 312 0012 1360     		str	r3, [r2]
 287:Generated_Source\PSoC5/CAN_TX_RX_func.c ****         uint8 result = CYRET_SUCCESS;
 313              		.loc 1 287 0
 314 0014 0020     		movs	r0, #0
 315 0016 7047     		bx	lr
 316              	.L35:
 295:Generated_Source\PSoC5/CAN_TX_RX_func.c ****             }
 317              		.loc 1 295 0
 318 0018 0120     		movs	r0, #1
 319              	.LVL31:
 308:Generated_Source\PSoC5/CAN_TX_RX_func.c ****                 CY_GET_REG32(CAN_TX_CMD_PTR(1u)) | CAN_SEND_MESSAGE);
 309:Generated_Source\PSoC5/CAN_TX_RX_func.c ****             }
 310:Generated_Source\PSoC5/CAN_TX_RX_func.c **** 
 311:Generated_Source\PSoC5/CAN_TX_RX_func.c ****         return (result);
 312:Generated_Source\PSoC5/CAN_TX_RX_func.c ****     }
 320              		.loc 1 312 0
 321 001a 7047     		bx	lr
 322              	.L37:
 323              		.align	2
 324              	.L36:
 325 001c 30A00040 		.word	1073782832
 326              		.cfi_endproc
 327              	.LFE3:
 328              		.size	CAN_SendMsgPEI_CURRENT, .-CAN_SendMsgPEI_CURRENT
 329              		.section	.text.CAN_SendMsgMC_ESTOP,"ax",%progbits
 330              		.align	2
 331              		.global	CAN_SendMsgMC_ESTOP
 332              		.thumb
 333              		.thumb_func
 334              		.type	CAN_SendMsgMC_ESTOP, %function
 335              	CAN_SendMsgMC_ESTOP:
 336              	.LFB4:
 313:Generated_Source\PSoC5/CAN_TX_RX_func.c **** #endif /* CAN_TX1_FUNC_ENABLE */
 314:Generated_Source\PSoC5/CAN_TX_RX_func.c **** 
 315:Generated_Source\PSoC5/CAN_TX_RX_func.c **** 
 316:Generated_Source\PSoC5/CAN_TX_RX_func.c **** #if (CAN_TX2_FUNC_ENABLE)
 317:Generated_Source\PSoC5/CAN_TX_RX_func.c ****     /*******************************************************************************
 318:Generated_Source\PSoC5/CAN_TX_RX_func.c ****     * FUNCTION NAME:   CAN_SendMsgMC_ESTOP
 319:Generated_Source\PSoC5/CAN_TX_RX_func.c ****     ********************************************************************************
 320:Generated_Source\PSoC5/CAN_TX_RX_func.c ****     *
 321:Generated_Source\PSoC5/CAN_TX_RX_func.c ****     * Summary:
 322:Generated_Source\PSoC5/CAN_TX_RX_func.c ****     *  This function is the entry point to Transmit Message 2. The function checks
 323:Generated_Source\PSoC5/CAN_TX_RX_func.c ****     *  if mailbox 2 doesn't already have un-transmitted messages waiting for
 324:Generated_Source\PSoC5/CAN_TX_RX_func.c ****     *  arbitration. If not initiate transmission of the message.
 325:Generated_Source\PSoC5/CAN_TX_RX_func.c ****     *  Generated only for the Transmit mailbox designed as Full.
 326:Generated_Source\PSoC5/CAN_TX_RX_func.c ****     *
 327:Generated_Source\PSoC5/CAN_TX_RX_func.c ****     * Parameters:
 328:Generated_Source\PSoC5/CAN_TX_RX_func.c ****     *  None.
 329:Generated_Source\PSoC5/CAN_TX_RX_func.c ****     *
 330:Generated_Source\PSoC5/CAN_TX_RX_func.c ****     * Return:
 331:Generated_Source\PSoC5/CAN_TX_RX_func.c ****     *  Indication if Message has been sent.
 332:Generated_Source\PSoC5/CAN_TX_RX_func.c ****     *   Define                             Description
 333:Generated_Source\PSoC5/CAN_TX_RX_func.c ****     *    CYRET_SUCCESS                      The function passed successfully
 334:Generated_Source\PSoC5/CAN_TX_RX_func.c ****     *    CAN_FAIL              The function failed
 335:Generated_Source\PSoC5/CAN_TX_RX_func.c ****     *
 336:Generated_Source\PSoC5/CAN_TX_RX_func.c ****     *******************************************************************************/
 337:Generated_Source\PSoC5/CAN_TX_RX_func.c ****     uint8 CAN_SendMsgMC_ESTOP(void) 
ARM GAS  C:\Users\leoja\AppData\Local\Temp\ccKgfOkx.s 			page 13


 338:Generated_Source\PSoC5/CAN_TX_RX_func.c ****     {
 337              		.loc 1 338 0
 338              		.cfi_startproc
 339              		@ args = 0, pretend = 0, frame = 0
 340              		@ frame_needed = 0, uses_anonymous_args = 0
 341              		@ link register save eliminated.
 342              	.LVL32:
 339:Generated_Source\PSoC5/CAN_TX_RX_func.c ****         uint8 result = CYRET_SUCCESS;
 340:Generated_Source\PSoC5/CAN_TX_RX_func.c **** 
 341:Generated_Source\PSoC5/CAN_TX_RX_func.c ****         #if (CY_PSOC3 || CY_PSOC5)
 342:Generated_Source\PSoC5/CAN_TX_RX_func.c ****             if ((CAN_TX[2u].txcmd.byte[0u] & CAN_TX_REQUEST_PENDING) != 0u)
 343              		.loc 1 342 0
 344 0000 064B     		ldr	r3, .L41
 345 0002 1B78     		ldrb	r3, [r3]	@ zero_extendqisi2
 346 0004 13F0010F 		tst	r3, #1
 347 0008 06D1     		bne	.L40
 343:Generated_Source\PSoC5/CAN_TX_RX_func.c ****         #else  /* CY_PSOC4 */
 344:Generated_Source\PSoC5/CAN_TX_RX_func.c ****             if ((CAN_TX_CMD_REG(2u) & CAN_TX_REQUEST_PENDING) != 0u)
 345:Generated_Source\PSoC5/CAN_TX_RX_func.c ****         #endif /* CY_PSOC3 || CY_PSOC5 */
 346:Generated_Source\PSoC5/CAN_TX_RX_func.c ****             {
 347:Generated_Source\PSoC5/CAN_TX_RX_func.c ****                 result = CAN_FAIL;
 348:Generated_Source\PSoC5/CAN_TX_RX_func.c ****             }
 349:Generated_Source\PSoC5/CAN_TX_RX_func.c ****             else
 350:Generated_Source\PSoC5/CAN_TX_RX_func.c ****             {
 351:Generated_Source\PSoC5/CAN_TX_RX_func.c ****                 /* `#START MESSAGE_MC_ESTOP_TRASMITTED` */
 352:Generated_Source\PSoC5/CAN_TX_RX_func.c **** 
 353:Generated_Source\PSoC5/CAN_TX_RX_func.c ****                 /* `#END` */
 354:Generated_Source\PSoC5/CAN_TX_RX_func.c **** 
 355:Generated_Source\PSoC5/CAN_TX_RX_func.c ****                 #ifdef CAN_SEND_MSG_MC_ESTOP_CALLBACK
 356:Generated_Source\PSoC5/CAN_TX_RX_func.c ****                     CAN_SendMsg_MC_ESTOP_Callback();
 357:Generated_Source\PSoC5/CAN_TX_RX_func.c ****                 #endif /* CAN_SEND_MSG_MC_ESTOP_CALLBACK */
 358:Generated_Source\PSoC5/CAN_TX_RX_func.c **** 
 359:Generated_Source\PSoC5/CAN_TX_RX_func.c ****                 CY_SET_REG32(CAN_TX_CMD_PTR(2u),
 348              		.loc 1 359 0
 349 000a 044A     		ldr	r2, .L41
 350 000c 1368     		ldr	r3, [r2]
 351 000e 43F00103 		orr	r3, r3, #1
 352 0012 1360     		str	r3, [r2]
 339:Generated_Source\PSoC5/CAN_TX_RX_func.c ****         uint8 result = CYRET_SUCCESS;
 353              		.loc 1 339 0
 354 0014 0020     		movs	r0, #0
 355 0016 7047     		bx	lr
 356              	.L40:
 347:Generated_Source\PSoC5/CAN_TX_RX_func.c ****             }
 357              		.loc 1 347 0
 358 0018 0120     		movs	r0, #1
 359              	.LVL33:
 360:Generated_Source\PSoC5/CAN_TX_RX_func.c ****                 CY_GET_REG32(CAN_TX_CMD_PTR(2u)) | CAN_SEND_MESSAGE);
 361:Generated_Source\PSoC5/CAN_TX_RX_func.c ****             }
 362:Generated_Source\PSoC5/CAN_TX_RX_func.c **** 
 363:Generated_Source\PSoC5/CAN_TX_RX_func.c ****         return (result);
 364:Generated_Source\PSoC5/CAN_TX_RX_func.c ****     }
 360              		.loc 1 364 0
 361 001a 7047     		bx	lr
 362              	.L42:
 363              		.align	2
 364              	.L41:
ARM GAS  C:\Users\leoja\AppData\Local\Temp\ccKgfOkx.s 			page 14


 365 001c 40A00040 		.word	1073782848
 366              		.cfi_endproc
 367              	.LFE4:
 368              		.size	CAN_SendMsgMC_ESTOP, .-CAN_SendMsgMC_ESTOP
 369              		.section	.text.CAN_SendMsgMC_DEBUG,"ax",%progbits
 370              		.align	2
 371              		.global	CAN_SendMsgMC_DEBUG
 372              		.thumb
 373              		.thumb_func
 374              		.type	CAN_SendMsgMC_DEBUG, %function
 375              	CAN_SendMsgMC_DEBUG:
 376              	.LFB5:
 365:Generated_Source\PSoC5/CAN_TX_RX_func.c **** #endif /* CAN_TX2_FUNC_ENABLE */
 366:Generated_Source\PSoC5/CAN_TX_RX_func.c **** 
 367:Generated_Source\PSoC5/CAN_TX_RX_func.c **** 
 368:Generated_Source\PSoC5/CAN_TX_RX_func.c **** #if (CAN_TX3_FUNC_ENABLE)
 369:Generated_Source\PSoC5/CAN_TX_RX_func.c ****     /*******************************************************************************
 370:Generated_Source\PSoC5/CAN_TX_RX_func.c ****     * FUNCTION NAME:   CAN_SendMsgMC_DEBUG
 371:Generated_Source\PSoC5/CAN_TX_RX_func.c ****     ********************************************************************************
 372:Generated_Source\PSoC5/CAN_TX_RX_func.c ****     *
 373:Generated_Source\PSoC5/CAN_TX_RX_func.c ****     * Summary:
 374:Generated_Source\PSoC5/CAN_TX_RX_func.c ****     *  This function is the entry point to Transmit Message 3. The function checks
 375:Generated_Source\PSoC5/CAN_TX_RX_func.c ****     *  if mailbox 3 doesn't already have un-transmitted messages waiting for
 376:Generated_Source\PSoC5/CAN_TX_RX_func.c ****     *  arbitration. If not initiate transmission of the message.
 377:Generated_Source\PSoC5/CAN_TX_RX_func.c ****     *  Generated only for the Transmit mailbox designed as Full.
 378:Generated_Source\PSoC5/CAN_TX_RX_func.c ****     *
 379:Generated_Source\PSoC5/CAN_TX_RX_func.c ****     * Parameters:
 380:Generated_Source\PSoC5/CAN_TX_RX_func.c ****     *  None.
 381:Generated_Source\PSoC5/CAN_TX_RX_func.c ****     *
 382:Generated_Source\PSoC5/CAN_TX_RX_func.c ****     * Return:
 383:Generated_Source\PSoC5/CAN_TX_RX_func.c ****     *  Indication if Message has been sent.
 384:Generated_Source\PSoC5/CAN_TX_RX_func.c ****     *   Define                             Description
 385:Generated_Source\PSoC5/CAN_TX_RX_func.c ****     *    CYRET_SUCCESS                      The function passed successfully
 386:Generated_Source\PSoC5/CAN_TX_RX_func.c ****     *    CAN_FAIL              The function failed
 387:Generated_Source\PSoC5/CAN_TX_RX_func.c ****     *
 388:Generated_Source\PSoC5/CAN_TX_RX_func.c ****     *******************************************************************************/
 389:Generated_Source\PSoC5/CAN_TX_RX_func.c ****     uint8 CAN_SendMsgMC_DEBUG(void) 
 390:Generated_Source\PSoC5/CAN_TX_RX_func.c ****     {
 377              		.loc 1 390 0
 378              		.cfi_startproc
 379              		@ args = 0, pretend = 0, frame = 0
 380              		@ frame_needed = 0, uses_anonymous_args = 0
 381              		@ link register save eliminated.
 382              	.LVL34:
 391:Generated_Source\PSoC5/CAN_TX_RX_func.c ****         uint8 result = CYRET_SUCCESS;
 392:Generated_Source\PSoC5/CAN_TX_RX_func.c **** 
 393:Generated_Source\PSoC5/CAN_TX_RX_func.c ****         #if (CY_PSOC3 || CY_PSOC5)
 394:Generated_Source\PSoC5/CAN_TX_RX_func.c ****             if ((CAN_TX[3u].txcmd.byte[0u] & CAN_TX_REQUEST_PENDING) != 0u)
 383              		.loc 1 394 0
 384 0000 064B     		ldr	r3, .L46
 385 0002 1B78     		ldrb	r3, [r3]	@ zero_extendqisi2
 386 0004 13F0010F 		tst	r3, #1
 387 0008 06D1     		bne	.L45
 395:Generated_Source\PSoC5/CAN_TX_RX_func.c ****         #else  /* CY_PSOC4 */
 396:Generated_Source\PSoC5/CAN_TX_RX_func.c ****             if ((CAN_TX_CMD_REG(3u) & CAN_TX_REQUEST_PENDING) != 0u)
 397:Generated_Source\PSoC5/CAN_TX_RX_func.c ****         #endif /* CY_PSOC3 || CY_PSOC5 */
 398:Generated_Source\PSoC5/CAN_TX_RX_func.c ****             {
ARM GAS  C:\Users\leoja\AppData\Local\Temp\ccKgfOkx.s 			page 15


 399:Generated_Source\PSoC5/CAN_TX_RX_func.c ****                 result = CAN_FAIL;
 400:Generated_Source\PSoC5/CAN_TX_RX_func.c ****             }
 401:Generated_Source\PSoC5/CAN_TX_RX_func.c ****             else
 402:Generated_Source\PSoC5/CAN_TX_RX_func.c ****             {
 403:Generated_Source\PSoC5/CAN_TX_RX_func.c ****                 /* `#START MESSAGE_MC_DEBUG_TRASMITTED` */
 404:Generated_Source\PSoC5/CAN_TX_RX_func.c **** 
 405:Generated_Source\PSoC5/CAN_TX_RX_func.c ****                 /* `#END` */
 406:Generated_Source\PSoC5/CAN_TX_RX_func.c **** 
 407:Generated_Source\PSoC5/CAN_TX_RX_func.c ****                 #ifdef CAN_SEND_MSG_MC_DEBUG_CALLBACK
 408:Generated_Source\PSoC5/CAN_TX_RX_func.c ****                     CAN_SendMsg_MC_DEBUG_Callback();
 409:Generated_Source\PSoC5/CAN_TX_RX_func.c ****                 #endif /* CAN_SEND_MSG_MC_DEBUG_CALLBACK */
 410:Generated_Source\PSoC5/CAN_TX_RX_func.c **** 
 411:Generated_Source\PSoC5/CAN_TX_RX_func.c ****                 CY_SET_REG32(CAN_TX_CMD_PTR(3u),
 388              		.loc 1 411 0
 389 000a 044A     		ldr	r2, .L46
 390 000c 1368     		ldr	r3, [r2]
 391 000e 43F00103 		orr	r3, r3, #1
 392 0012 1360     		str	r3, [r2]
 391:Generated_Source\PSoC5/CAN_TX_RX_func.c ****         uint8 result = CYRET_SUCCESS;
 393              		.loc 1 391 0
 394 0014 0020     		movs	r0, #0
 395 0016 7047     		bx	lr
 396              	.L45:
 399:Generated_Source\PSoC5/CAN_TX_RX_func.c ****             }
 397              		.loc 1 399 0
 398 0018 0120     		movs	r0, #1
 399              	.LVL35:
 412:Generated_Source\PSoC5/CAN_TX_RX_func.c ****                 CY_GET_REG32(CAN_TX_CMD_PTR(3u)) | CAN_SEND_MESSAGE);
 413:Generated_Source\PSoC5/CAN_TX_RX_func.c ****             }
 414:Generated_Source\PSoC5/CAN_TX_RX_func.c **** 
 415:Generated_Source\PSoC5/CAN_TX_RX_func.c ****         return (result);
 416:Generated_Source\PSoC5/CAN_TX_RX_func.c ****     }
 400              		.loc 1 416 0
 401 001a 7047     		bx	lr
 402              	.L47:
 403              		.align	2
 404              	.L46:
 405 001c 50A00040 		.word	1073782864
 406              		.cfi_endproc
 407              	.LFE5:
 408              		.size	CAN_SendMsgMC_DEBUG, .-CAN_SendMsgMC_DEBUG
 409              		.section	.text.CAN_ReceiveMsg,"ax",%progbits
 410              		.align	2
 411              		.global	CAN_ReceiveMsg
 412              		.thumb
 413              		.thumb_func
 414              		.type	CAN_ReceiveMsg, %function
 415              	CAN_ReceiveMsg:
 416              	.LFB6:
 417:Generated_Source\PSoC5/CAN_TX_RX_func.c **** #endif /* CAN_TX3_FUNC_ENABLE */
 418:Generated_Source\PSoC5/CAN_TX_RX_func.c **** 
 419:Generated_Source\PSoC5/CAN_TX_RX_func.c **** 
 420:Generated_Source\PSoC5/CAN_TX_RX_func.c **** #if (CAN_TX4_FUNC_ENABLE)
 421:Generated_Source\PSoC5/CAN_TX_RX_func.c ****     /*******************************************************************************
 422:Generated_Source\PSoC5/CAN_TX_RX_func.c ****     * FUNCTION NAME:   CAN_SendMsg4
 423:Generated_Source\PSoC5/CAN_TX_RX_func.c ****     ********************************************************************************
 424:Generated_Source\PSoC5/CAN_TX_RX_func.c ****     *
ARM GAS  C:\Users\leoja\AppData\Local\Temp\ccKgfOkx.s 			page 16


 425:Generated_Source\PSoC5/CAN_TX_RX_func.c ****     * Summary:
 426:Generated_Source\PSoC5/CAN_TX_RX_func.c ****     *  This function is the entry point to Transmit Message 4. The function checks
 427:Generated_Source\PSoC5/CAN_TX_RX_func.c ****     *  if mailbox 4 doesn't already have un-transmitted messages waiting for
 428:Generated_Source\PSoC5/CAN_TX_RX_func.c ****     *  arbitration. If not initiate transmission of the message.
 429:Generated_Source\PSoC5/CAN_TX_RX_func.c ****     *  Generated only for the Transmit mailbox designed as Full.
 430:Generated_Source\PSoC5/CAN_TX_RX_func.c ****     *
 431:Generated_Source\PSoC5/CAN_TX_RX_func.c ****     * Parameters:
 432:Generated_Source\PSoC5/CAN_TX_RX_func.c ****     *  None.
 433:Generated_Source\PSoC5/CAN_TX_RX_func.c ****     *
 434:Generated_Source\PSoC5/CAN_TX_RX_func.c ****     * Return:
 435:Generated_Source\PSoC5/CAN_TX_RX_func.c ****     *  Indication if Message has been sent.
 436:Generated_Source\PSoC5/CAN_TX_RX_func.c ****     *   Define                             Description
 437:Generated_Source\PSoC5/CAN_TX_RX_func.c ****     *    CYRET_SUCCESS                      The function passed successfully
 438:Generated_Source\PSoC5/CAN_TX_RX_func.c ****     *    CAN_FAIL              The function failed
 439:Generated_Source\PSoC5/CAN_TX_RX_func.c ****     *
 440:Generated_Source\PSoC5/CAN_TX_RX_func.c ****     *******************************************************************************/
 441:Generated_Source\PSoC5/CAN_TX_RX_func.c ****     uint8 CAN_SendMsg4(void) 
 442:Generated_Source\PSoC5/CAN_TX_RX_func.c ****     {
 443:Generated_Source\PSoC5/CAN_TX_RX_func.c ****         uint8 result = CYRET_SUCCESS;
 444:Generated_Source\PSoC5/CAN_TX_RX_func.c **** 
 445:Generated_Source\PSoC5/CAN_TX_RX_func.c ****         #if (CY_PSOC3 || CY_PSOC5)
 446:Generated_Source\PSoC5/CAN_TX_RX_func.c ****             if ((CAN_TX[4u].txcmd.byte[0u] & CAN_TX_REQUEST_PENDING) != 0u)
 447:Generated_Source\PSoC5/CAN_TX_RX_func.c ****         #else  /* CY_PSOC4 */
 448:Generated_Source\PSoC5/CAN_TX_RX_func.c ****             if ((CAN_TX_CMD_REG(4u) & CAN_TX_REQUEST_PENDING) != 0u)
 449:Generated_Source\PSoC5/CAN_TX_RX_func.c ****         #endif /* CY_PSOC3 || CY_PSOC5 */
 450:Generated_Source\PSoC5/CAN_TX_RX_func.c ****             {
 451:Generated_Source\PSoC5/CAN_TX_RX_func.c ****                 result = CAN_FAIL;
 452:Generated_Source\PSoC5/CAN_TX_RX_func.c ****             }
 453:Generated_Source\PSoC5/CAN_TX_RX_func.c ****             else
 454:Generated_Source\PSoC5/CAN_TX_RX_func.c ****             {
 455:Generated_Source\PSoC5/CAN_TX_RX_func.c ****                 /* `#START MESSAGE_4_TRASMITTED` */
 456:Generated_Source\PSoC5/CAN_TX_RX_func.c **** 
 457:Generated_Source\PSoC5/CAN_TX_RX_func.c ****                 /* `#END` */
 458:Generated_Source\PSoC5/CAN_TX_RX_func.c **** 
 459:Generated_Source\PSoC5/CAN_TX_RX_func.c ****                 #ifdef CAN_SEND_MSG_4_CALLBACK
 460:Generated_Source\PSoC5/CAN_TX_RX_func.c ****                     CAN_SendMsg_4_Callback();
 461:Generated_Source\PSoC5/CAN_TX_RX_func.c ****                 #endif /* CAN_SEND_MSG_4_CALLBACK */
 462:Generated_Source\PSoC5/CAN_TX_RX_func.c **** 
 463:Generated_Source\PSoC5/CAN_TX_RX_func.c ****                 CY_SET_REG32(CAN_TX_CMD_PTR(4u),
 464:Generated_Source\PSoC5/CAN_TX_RX_func.c ****                 CY_GET_REG32(CAN_TX_CMD_PTR(4u)) | CAN_SEND_MESSAGE);
 465:Generated_Source\PSoC5/CAN_TX_RX_func.c ****             }
 466:Generated_Source\PSoC5/CAN_TX_RX_func.c **** 
 467:Generated_Source\PSoC5/CAN_TX_RX_func.c ****         return (result);
 468:Generated_Source\PSoC5/CAN_TX_RX_func.c ****     }
 469:Generated_Source\PSoC5/CAN_TX_RX_func.c **** #endif /* CAN_TX4_FUNC_ENABLE */
 470:Generated_Source\PSoC5/CAN_TX_RX_func.c **** 
 471:Generated_Source\PSoC5/CAN_TX_RX_func.c **** 
 472:Generated_Source\PSoC5/CAN_TX_RX_func.c **** #if (CAN_TX5_FUNC_ENABLE)
 473:Generated_Source\PSoC5/CAN_TX_RX_func.c ****     /*******************************************************************************
 474:Generated_Source\PSoC5/CAN_TX_RX_func.c ****     * FUNCTION NAME:   CAN_SendMsg5
 475:Generated_Source\PSoC5/CAN_TX_RX_func.c ****     ********************************************************************************
 476:Generated_Source\PSoC5/CAN_TX_RX_func.c ****     *
 477:Generated_Source\PSoC5/CAN_TX_RX_func.c ****     * Summary:
 478:Generated_Source\PSoC5/CAN_TX_RX_func.c ****     *  This function is the entry point to Transmit Message 5. The function checks
 479:Generated_Source\PSoC5/CAN_TX_RX_func.c ****     *  if mailbox 5 doesn't already have un-transmitted messages waiting for
 480:Generated_Source\PSoC5/CAN_TX_RX_func.c ****     *  arbitration. If not initiate transmission of the message.
 481:Generated_Source\PSoC5/CAN_TX_RX_func.c ****     *  Generated only for the Transmit mailbox designed as Full.
ARM GAS  C:\Users\leoja\AppData\Local\Temp\ccKgfOkx.s 			page 17


 482:Generated_Source\PSoC5/CAN_TX_RX_func.c ****     *
 483:Generated_Source\PSoC5/CAN_TX_RX_func.c ****     * Parameters:
 484:Generated_Source\PSoC5/CAN_TX_RX_func.c ****     *  None.
 485:Generated_Source\PSoC5/CAN_TX_RX_func.c ****     *
 486:Generated_Source\PSoC5/CAN_TX_RX_func.c ****     * Return:
 487:Generated_Source\PSoC5/CAN_TX_RX_func.c ****     *  Indication if Message has been sent.
 488:Generated_Source\PSoC5/CAN_TX_RX_func.c ****     *   Define                             Description
 489:Generated_Source\PSoC5/CAN_TX_RX_func.c ****     *    CYRET_SUCCESS                      The function passed successfully
 490:Generated_Source\PSoC5/CAN_TX_RX_func.c ****     *    CAN_FAIL              The function failed
 491:Generated_Source\PSoC5/CAN_TX_RX_func.c ****     *
 492:Generated_Source\PSoC5/CAN_TX_RX_func.c ****     *******************************************************************************/
 493:Generated_Source\PSoC5/CAN_TX_RX_func.c ****     uint8 CAN_SendMsg5(void) 
 494:Generated_Source\PSoC5/CAN_TX_RX_func.c ****     {
 495:Generated_Source\PSoC5/CAN_TX_RX_func.c ****         uint8 result = CYRET_SUCCESS;
 496:Generated_Source\PSoC5/CAN_TX_RX_func.c **** 
 497:Generated_Source\PSoC5/CAN_TX_RX_func.c ****         #if (CY_PSOC3 || CY_PSOC5)
 498:Generated_Source\PSoC5/CAN_TX_RX_func.c ****             if ((CAN_TX[5u].txcmd.byte[0u] & CAN_TX_REQUEST_PENDING) != 0u)
 499:Generated_Source\PSoC5/CAN_TX_RX_func.c ****         #else  /* CY_PSOC4 */
 500:Generated_Source\PSoC5/CAN_TX_RX_func.c ****             if ((CAN_TX_CMD_REG(5u) & CAN_TX_REQUEST_PENDING) != 0u)
 501:Generated_Source\PSoC5/CAN_TX_RX_func.c ****         #endif /* CY_PSOC3 || CY_PSOC5 */
 502:Generated_Source\PSoC5/CAN_TX_RX_func.c ****             {
 503:Generated_Source\PSoC5/CAN_TX_RX_func.c ****                 result = CAN_FAIL;
 504:Generated_Source\PSoC5/CAN_TX_RX_func.c ****             }
 505:Generated_Source\PSoC5/CAN_TX_RX_func.c ****             else
 506:Generated_Source\PSoC5/CAN_TX_RX_func.c ****             {
 507:Generated_Source\PSoC5/CAN_TX_RX_func.c ****                 /* `#START MESSAGE_5_TRASMITTED` */
 508:Generated_Source\PSoC5/CAN_TX_RX_func.c **** 
 509:Generated_Source\PSoC5/CAN_TX_RX_func.c ****                 /* `#END` */
 510:Generated_Source\PSoC5/CAN_TX_RX_func.c **** 
 511:Generated_Source\PSoC5/CAN_TX_RX_func.c ****                 #ifdef CAN_SEND_MSG_5_CALLBACK
 512:Generated_Source\PSoC5/CAN_TX_RX_func.c ****                     CAN_SendMsg_5_Callback();
 513:Generated_Source\PSoC5/CAN_TX_RX_func.c ****                 #endif /* CAN_SEND_MSG_5_CALLBACK */
 514:Generated_Source\PSoC5/CAN_TX_RX_func.c **** 
 515:Generated_Source\PSoC5/CAN_TX_RX_func.c ****                 CY_SET_REG32(CAN_TX_CMD_PTR(5u),
 516:Generated_Source\PSoC5/CAN_TX_RX_func.c ****                 CY_GET_REG32(CAN_TX_CMD_PTR(5u)) | CAN_SEND_MESSAGE);
 517:Generated_Source\PSoC5/CAN_TX_RX_func.c ****             }
 518:Generated_Source\PSoC5/CAN_TX_RX_func.c **** 
 519:Generated_Source\PSoC5/CAN_TX_RX_func.c ****         return (result);
 520:Generated_Source\PSoC5/CAN_TX_RX_func.c ****     }
 521:Generated_Source\PSoC5/CAN_TX_RX_func.c **** #endif /* CAN_TX5_FUNC_ENABLE */
 522:Generated_Source\PSoC5/CAN_TX_RX_func.c **** 
 523:Generated_Source\PSoC5/CAN_TX_RX_func.c **** 
 524:Generated_Source\PSoC5/CAN_TX_RX_func.c **** #if (CAN_TX6_FUNC_ENABLE)
 525:Generated_Source\PSoC5/CAN_TX_RX_func.c ****     /*******************************************************************************
 526:Generated_Source\PSoC5/CAN_TX_RX_func.c ****     * FUNCTION NAME:   CAN_SendMsg6
 527:Generated_Source\PSoC5/CAN_TX_RX_func.c ****     ********************************************************************************
 528:Generated_Source\PSoC5/CAN_TX_RX_func.c ****     *
 529:Generated_Source\PSoC5/CAN_TX_RX_func.c ****     * Summary:
 530:Generated_Source\PSoC5/CAN_TX_RX_func.c ****     *  This function is the entry point to Transmit Message 6. The function checks
 531:Generated_Source\PSoC5/CAN_TX_RX_func.c ****     *  if mailbox 6 doesn't already have un-transmitted messages waiting for
 532:Generated_Source\PSoC5/CAN_TX_RX_func.c ****     *  arbitration. If not initiate transmission of the message.
 533:Generated_Source\PSoC5/CAN_TX_RX_func.c ****     *  Generated only for the Transmit mailbox designed as Full.
 534:Generated_Source\PSoC5/CAN_TX_RX_func.c ****     *
 535:Generated_Source\PSoC5/CAN_TX_RX_func.c ****     * Parameters:
 536:Generated_Source\PSoC5/CAN_TX_RX_func.c ****     *  None.
 537:Generated_Source\PSoC5/CAN_TX_RX_func.c ****     *
 538:Generated_Source\PSoC5/CAN_TX_RX_func.c ****     * Return:
ARM GAS  C:\Users\leoja\AppData\Local\Temp\ccKgfOkx.s 			page 18


 539:Generated_Source\PSoC5/CAN_TX_RX_func.c ****     *  Indication if Message has been sent.
 540:Generated_Source\PSoC5/CAN_TX_RX_func.c ****     *   Define                             Description
 541:Generated_Source\PSoC5/CAN_TX_RX_func.c ****     *    CYRET_SUCCESS                      The function passed successfully
 542:Generated_Source\PSoC5/CAN_TX_RX_func.c ****     *    CAN_FAIL              The function failed
 543:Generated_Source\PSoC5/CAN_TX_RX_func.c ****     *
 544:Generated_Source\PSoC5/CAN_TX_RX_func.c ****     *******************************************************************************/
 545:Generated_Source\PSoC5/CAN_TX_RX_func.c ****     uint8 CAN_SendMsg6(void) 
 546:Generated_Source\PSoC5/CAN_TX_RX_func.c ****     {
 547:Generated_Source\PSoC5/CAN_TX_RX_func.c ****         uint8 result = CYRET_SUCCESS;
 548:Generated_Source\PSoC5/CAN_TX_RX_func.c **** 
 549:Generated_Source\PSoC5/CAN_TX_RX_func.c ****         #if (CY_PSOC3 || CY_PSOC5)
 550:Generated_Source\PSoC5/CAN_TX_RX_func.c ****             if ((CAN_TX[6u].txcmd.byte[0u] & CAN_TX_REQUEST_PENDING) != 0u)
 551:Generated_Source\PSoC5/CAN_TX_RX_func.c ****         #else  /* CY_PSOC4 */
 552:Generated_Source\PSoC5/CAN_TX_RX_func.c ****             if ((CAN_TX_CMD_REG(6u) & CAN_TX_REQUEST_PENDING) != 0u)
 553:Generated_Source\PSoC5/CAN_TX_RX_func.c ****         #endif /* CY_PSOC3 || CY_PSOC5 */
 554:Generated_Source\PSoC5/CAN_TX_RX_func.c ****             {
 555:Generated_Source\PSoC5/CAN_TX_RX_func.c ****                 result = CAN_FAIL;
 556:Generated_Source\PSoC5/CAN_TX_RX_func.c ****             }
 557:Generated_Source\PSoC5/CAN_TX_RX_func.c ****             else
 558:Generated_Source\PSoC5/CAN_TX_RX_func.c ****             {
 559:Generated_Source\PSoC5/CAN_TX_RX_func.c ****                 /* `#START MESSAGE_6_TRASMITTED` */
 560:Generated_Source\PSoC5/CAN_TX_RX_func.c **** 
 561:Generated_Source\PSoC5/CAN_TX_RX_func.c ****                 /* `#END` */
 562:Generated_Source\PSoC5/CAN_TX_RX_func.c **** 
 563:Generated_Source\PSoC5/CAN_TX_RX_func.c ****                 #ifdef CAN_SEND_MSG_6_CALLBACK
 564:Generated_Source\PSoC5/CAN_TX_RX_func.c ****                     CAN_SendMsg_6_Callback();
 565:Generated_Source\PSoC5/CAN_TX_RX_func.c ****                 #endif /* CAN_SEND_MSG_6_CALLBACK */
 566:Generated_Source\PSoC5/CAN_TX_RX_func.c **** 
 567:Generated_Source\PSoC5/CAN_TX_RX_func.c ****                 CY_SET_REG32(CAN_TX_CMD_PTR(6u),
 568:Generated_Source\PSoC5/CAN_TX_RX_func.c ****                 CY_GET_REG32(CAN_TX_CMD_PTR(6u)) | CAN_SEND_MESSAGE);
 569:Generated_Source\PSoC5/CAN_TX_RX_func.c ****             }
 570:Generated_Source\PSoC5/CAN_TX_RX_func.c **** 
 571:Generated_Source\PSoC5/CAN_TX_RX_func.c ****         return (result);
 572:Generated_Source\PSoC5/CAN_TX_RX_func.c ****     }
 573:Generated_Source\PSoC5/CAN_TX_RX_func.c **** #endif /* CAN_TX6_FUNC_ENABLE */
 574:Generated_Source\PSoC5/CAN_TX_RX_func.c **** 
 575:Generated_Source\PSoC5/CAN_TX_RX_func.c **** 
 576:Generated_Source\PSoC5/CAN_TX_RX_func.c **** #if (CAN_TX7_FUNC_ENABLE)
 577:Generated_Source\PSoC5/CAN_TX_RX_func.c ****     /*******************************************************************************
 578:Generated_Source\PSoC5/CAN_TX_RX_func.c ****     * FUNCTION NAME:   CAN_SendMsg7)
 579:Generated_Source\PSoC5/CAN_TX_RX_func.c ****     ********************************************************************************
 580:Generated_Source\PSoC5/CAN_TX_RX_func.c ****     *
 581:Generated_Source\PSoC5/CAN_TX_RX_func.c ****     * Summary:
 582:Generated_Source\PSoC5/CAN_TX_RX_func.c ****     *  This function is the entry point to Transmit Message 7. The function checks
 583:Generated_Source\PSoC5/CAN_TX_RX_func.c ****     *  if mailbox 7 doesn't already have un-transmitted messages waiting for
 584:Generated_Source\PSoC5/CAN_TX_RX_func.c ****     *  arbitration. If not initiate transmission of the message.
 585:Generated_Source\PSoC5/CAN_TX_RX_func.c ****     *  Generated only for the Transmit mailbox designed as Full.
 586:Generated_Source\PSoC5/CAN_TX_RX_func.c ****     *
 587:Generated_Source\PSoC5/CAN_TX_RX_func.c ****     * Parameters:
 588:Generated_Source\PSoC5/CAN_TX_RX_func.c ****     *  None.
 589:Generated_Source\PSoC5/CAN_TX_RX_func.c ****     *
 590:Generated_Source\PSoC5/CAN_TX_RX_func.c ****     * Return:
 591:Generated_Source\PSoC5/CAN_TX_RX_func.c ****     *  Indication if Message has been sent.
 592:Generated_Source\PSoC5/CAN_TX_RX_func.c ****     *   Define                             Description
 593:Generated_Source\PSoC5/CAN_TX_RX_func.c ****     *    CYRET_SUCCESS                      The function passed successfully
 594:Generated_Source\PSoC5/CAN_TX_RX_func.c ****     *    CAN_FAIL              The function failed
 595:Generated_Source\PSoC5/CAN_TX_RX_func.c ****     *
ARM GAS  C:\Users\leoja\AppData\Local\Temp\ccKgfOkx.s 			page 19


 596:Generated_Source\PSoC5/CAN_TX_RX_func.c ****     *******************************************************************************/
 597:Generated_Source\PSoC5/CAN_TX_RX_func.c ****     uint8 CAN_SendMsg7(void) 
 598:Generated_Source\PSoC5/CAN_TX_RX_func.c ****     {
 599:Generated_Source\PSoC5/CAN_TX_RX_func.c ****         uint8 result = CYRET_SUCCESS;
 600:Generated_Source\PSoC5/CAN_TX_RX_func.c **** 
 601:Generated_Source\PSoC5/CAN_TX_RX_func.c ****         #if (CY_PSOC3 || CY_PSOC5)
 602:Generated_Source\PSoC5/CAN_TX_RX_func.c ****             if ((CAN_TX[7u].txcmd.byte[0u] & CAN_TX_REQUEST_PENDING) != 0u)
 603:Generated_Source\PSoC5/CAN_TX_RX_func.c ****         #else  /* CY_PSOC4 */
 604:Generated_Source\PSoC5/CAN_TX_RX_func.c ****             if ((CAN_TX_CMD_REG(7u) & CAN_TX_REQUEST_PENDING) != 0u)
 605:Generated_Source\PSoC5/CAN_TX_RX_func.c ****         #endif /* CY_PSOC3 || CY_PSOC5 */
 606:Generated_Source\PSoC5/CAN_TX_RX_func.c ****             {
 607:Generated_Source\PSoC5/CAN_TX_RX_func.c ****                 result = CAN_FAIL;
 608:Generated_Source\PSoC5/CAN_TX_RX_func.c ****             }
 609:Generated_Source\PSoC5/CAN_TX_RX_func.c ****             else
 610:Generated_Source\PSoC5/CAN_TX_RX_func.c ****             {
 611:Generated_Source\PSoC5/CAN_TX_RX_func.c ****                 /* `#START MESSAGE_7_TRASMITTED` */
 612:Generated_Source\PSoC5/CAN_TX_RX_func.c **** 
 613:Generated_Source\PSoC5/CAN_TX_RX_func.c ****                 /* `#END` */
 614:Generated_Source\PSoC5/CAN_TX_RX_func.c **** 
 615:Generated_Source\PSoC5/CAN_TX_RX_func.c ****                 #ifdef CAN_SEND_MSG_7_CALLBACK
 616:Generated_Source\PSoC5/CAN_TX_RX_func.c ****                     CAN_SendMsg_7_Callback();
 617:Generated_Source\PSoC5/CAN_TX_RX_func.c ****                 #endif /* CAN_SEND_MSG_7_CALLBACK */
 618:Generated_Source\PSoC5/CAN_TX_RX_func.c **** 
 619:Generated_Source\PSoC5/CAN_TX_RX_func.c ****                 CY_SET_REG32(CAN_TX_CMD_PTR(7u),
 620:Generated_Source\PSoC5/CAN_TX_RX_func.c ****                 CY_GET_REG32(CAN_TX_CMD_PTR(7u)) | CAN_SEND_MESSAGE);
 621:Generated_Source\PSoC5/CAN_TX_RX_func.c ****             }
 622:Generated_Source\PSoC5/CAN_TX_RX_func.c **** 
 623:Generated_Source\PSoC5/CAN_TX_RX_func.c ****         return (result);
 624:Generated_Source\PSoC5/CAN_TX_RX_func.c ****     }
 625:Generated_Source\PSoC5/CAN_TX_RX_func.c **** #endif /* CAN_TX7_FUNC_ENABLE */
 626:Generated_Source\PSoC5/CAN_TX_RX_func.c **** 
 627:Generated_Source\PSoC5/CAN_TX_RX_func.c **** 
 628:Generated_Source\PSoC5/CAN_TX_RX_func.c **** /*******************************************************************************
 629:Generated_Source\PSoC5/CAN_TX_RX_func.c **** * FUNCTION NAME:   CAN_ReceiveMsg
 630:Generated_Source\PSoC5/CAN_TX_RX_func.c **** ********************************************************************************
 631:Generated_Source\PSoC5/CAN_TX_RX_func.c **** *
 632:Generated_Source\PSoC5/CAN_TX_RX_func.c **** * Summary:
 633:Generated_Source\PSoC5/CAN_TX_RX_func.c **** *  This function is the entry point to Receive Message Interrupt for Basic
 634:Generated_Source\PSoC5/CAN_TX_RX_func.c **** *  mailboxes. Clears the Receive particular Message interrupt flag. Generated
 635:Generated_Source\PSoC5/CAN_TX_RX_func.c **** *  only if one of the Receive mailboxes is designed as Basic.
 636:Generated_Source\PSoC5/CAN_TX_RX_func.c **** *
 637:Generated_Source\PSoC5/CAN_TX_RX_func.c **** * Parameters:
 638:Generated_Source\PSoC5/CAN_TX_RX_func.c **** *  rxMailbox: The mailbox number that trig Receive Message Interrupt.
 639:Generated_Source\PSoC5/CAN_TX_RX_func.c **** *
 640:Generated_Source\PSoC5/CAN_TX_RX_func.c **** * Return:
 641:Generated_Source\PSoC5/CAN_TX_RX_func.c **** *  None.
 642:Generated_Source\PSoC5/CAN_TX_RX_func.c **** *
 643:Generated_Source\PSoC5/CAN_TX_RX_func.c **** * Reentrant:
 644:Generated_Source\PSoC5/CAN_TX_RX_func.c **** *  Depends on the Customer code.
 645:Generated_Source\PSoC5/CAN_TX_RX_func.c **** *
 646:Generated_Source\PSoC5/CAN_TX_RX_func.c **** *******************************************************************************/
 647:Generated_Source\PSoC5/CAN_TX_RX_func.c **** void CAN_ReceiveMsg(uint8 rxMailbox) 
 648:Generated_Source\PSoC5/CAN_TX_RX_func.c **** {
 417              		.loc 1 648 0
 418              		.cfi_startproc
 419              		@ args = 0, pretend = 0, frame = 0
 420              		@ frame_needed = 0, uses_anonymous_args = 0
ARM GAS  C:\Users\leoja\AppData\Local\Temp\ccKgfOkx.s 			page 20


 421              		@ link register save eliminated.
 422              	.LVL36:
 649:Generated_Source\PSoC5/CAN_TX_RX_func.c ****     #if (CY_PSOC3 || CY_PSOC5)
 650:Generated_Source\PSoC5/CAN_TX_RX_func.c ****         if ((CAN_RX[rxMailbox].rxcmd.byte[0u] & CAN_RX_ACK_MSG) != 0u)
 423              		.loc 1 650 0
 424 0000 4001     		lsls	r0, r0, #5
 425              	.LVL37:
 426 0002 054B     		ldr	r3, .L50
 427 0004 C25C     		ldrb	r2, [r0, r3]	@ zero_extendqisi2
 428 0006 12F0010F 		tst	r2, #1
 429 000a 03D0     		beq	.L48
 651:Generated_Source\PSoC5/CAN_TX_RX_func.c ****     #else  /* CY_PSOC4 */
 652:Generated_Source\PSoC5/CAN_TX_RX_func.c ****         if ((CAN_RX_CMD_REG(rxMailbox) & CAN_RX_ACK_MSG) != 0u)
 653:Generated_Source\PSoC5/CAN_TX_RX_func.c ****     #endif /* CY_PSOC3 || CY_PSOC5 */
 654:Generated_Source\PSoC5/CAN_TX_RX_func.c ****         {
 655:Generated_Source\PSoC5/CAN_TX_RX_func.c ****             /* `#START MESSAGE_BASIC_RECEIVED` */
 656:Generated_Source\PSoC5/CAN_TX_RX_func.c **** 
 657:Generated_Source\PSoC5/CAN_TX_RX_func.c ****             /* `#END` */
 658:Generated_Source\PSoC5/CAN_TX_RX_func.c **** 
 659:Generated_Source\PSoC5/CAN_TX_RX_func.c ****             #ifdef CAN_RECEIVE_MSG_CALLBACK
 660:Generated_Source\PSoC5/CAN_TX_RX_func.c ****                 CAN_ReceiveMsg_Callback();
 661:Generated_Source\PSoC5/CAN_TX_RX_func.c ****             #endif /* CAN_RECEIVE_MSG_CALLBACK */
 662:Generated_Source\PSoC5/CAN_TX_RX_func.c **** 
 663:Generated_Source\PSoC5/CAN_TX_RX_func.c ****             #if (CY_PSOC3 || CY_PSOC5)
 664:Generated_Source\PSoC5/CAN_TX_RX_func.c ****                 CAN_RX[rxMailbox].rxcmd.byte[0u] |= CAN_RX_ACK_MSG;
 430              		.loc 1 664 0
 431 000c C25C     		ldrb	r2, [r0, r3]	@ zero_extendqisi2
 432 000e 42F00102 		orr	r2, r2, #1
 433 0012 C254     		strb	r2, [r0, r3]
 434              	.L48:
 435 0014 7047     		bx	lr
 436              	.L51:
 437 0016 00BF     		.align	2
 438              	.L50:
 439 0018 A0A00040 		.word	1073782944
 440              		.cfi_endproc
 441              	.LFE6:
 442              		.size	CAN_ReceiveMsg, .-CAN_ReceiveMsg
 443              		.section	.text.CAN_ReceiveMsgTorque_Request_Command,"ax",%progbits
 444              		.align	2
 445              		.global	CAN_ReceiveMsgTorque_Request_Command
 446              		.thumb
 447              		.thumb_func
 448              		.type	CAN_ReceiveMsgTorque_Request_Command, %function
 449              	CAN_ReceiveMsgTorque_Request_Command:
 450              	.LFB7:
 665:Generated_Source\PSoC5/CAN_TX_RX_func.c ****             #else  /* CY_PSOC4 */
 666:Generated_Source\PSoC5/CAN_TX_RX_func.c ****                 CAN_RX_CMD_REG(rxMailbox) |= CAN_RX_ACK_MSG;
 667:Generated_Source\PSoC5/CAN_TX_RX_func.c ****             #endif /* CY_PSOC3 || CY_PSOC5 */
 668:Generated_Source\PSoC5/CAN_TX_RX_func.c ****         }
 669:Generated_Source\PSoC5/CAN_TX_RX_func.c **** }
 670:Generated_Source\PSoC5/CAN_TX_RX_func.c **** 
 671:Generated_Source\PSoC5/CAN_TX_RX_func.c **** 
 672:Generated_Source\PSoC5/CAN_TX_RX_func.c **** #if (CAN_RX0_FUNC_ENABLE)
 673:Generated_Source\PSoC5/CAN_TX_RX_func.c ****     /*******************************************************************************
 674:Generated_Source\PSoC5/CAN_TX_RX_func.c ****     * FUNCTION NAME:   CAN_ReceiveMsgTorque_Request_Command
 675:Generated_Source\PSoC5/CAN_TX_RX_func.c ****     ********************************************************************************
ARM GAS  C:\Users\leoja\AppData\Local\Temp\ccKgfOkx.s 			page 21


 676:Generated_Source\PSoC5/CAN_TX_RX_func.c ****     *
 677:Generated_Source\PSoC5/CAN_TX_RX_func.c ****     * Summary:
 678:Generated_Source\PSoC5/CAN_TX_RX_func.c ****     *  This function is the entry point to Receive Message 0 Interrupt. Clears the
 679:Generated_Source\PSoC5/CAN_TX_RX_func.c ****     *  Receive Message 0 interrupt flag. Generated only for the Receive mailbox
 680:Generated_Source\PSoC5/CAN_TX_RX_func.c ****     *  designed as Full.
 681:Generated_Source\PSoC5/CAN_TX_RX_func.c ****     *
 682:Generated_Source\PSoC5/CAN_TX_RX_func.c ****     * Parameters:
 683:Generated_Source\PSoC5/CAN_TX_RX_func.c ****     *  None.
 684:Generated_Source\PSoC5/CAN_TX_RX_func.c ****     *
 685:Generated_Source\PSoC5/CAN_TX_RX_func.c ****     * Return:
 686:Generated_Source\PSoC5/CAN_TX_RX_func.c ****     *  None.
 687:Generated_Source\PSoC5/CAN_TX_RX_func.c ****     *
 688:Generated_Source\PSoC5/CAN_TX_RX_func.c ****     * Reentrant:
 689:Generated_Source\PSoC5/CAN_TX_RX_func.c ****     *  Depends on the Customer code.
 690:Generated_Source\PSoC5/CAN_TX_RX_func.c ****     *
 691:Generated_Source\PSoC5/CAN_TX_RX_func.c ****     *******************************************************************************/
 692:Generated_Source\PSoC5/CAN_TX_RX_func.c ****     void CAN_ReceiveMsgTorque_Request_Command(void) 
 693:Generated_Source\PSoC5/CAN_TX_RX_func.c ****     {
 451              		.loc 1 693 0
 452              		.cfi_startproc
 453              		@ args = 0, pretend = 0, frame = 0
 454              		@ frame_needed = 0, uses_anonymous_args = 0
 455              		@ link register save eliminated.
 694:Generated_Source\PSoC5/CAN_TX_RX_func.c ****         /* `#START MESSAGE_Torque_Request_Command_RECEIVED` */
 695:Generated_Source\PSoC5/CAN_TX_RX_func.c ****         HV_REQUEST_TR = CAN_RX_DATA_BYTE1(CAN_RX_MAILBOX_Torque_Request_Command);
 456              		.loc 1 695 0
 457 0000 064B     		ldr	r3, .L53
 458 0002 DA7A     		ldrb	r2, [r3, #11]	@ zero_extendqisi2
 459 0004 D2B2     		uxtb	r2, r2
 460 0006 0649     		ldr	r1, .L53+4
 461 0008 0A70     		strb	r2, [r1]
 696:Generated_Source\PSoC5/CAN_TX_RX_func.c ****         VEHICLE_STATE = CAN_RX_DATA_BYTE5(CAN_RX_MAILBOX_Torque_Request_Command);
 462              		.loc 1 696 0
 463 000a DA7B     		ldrb	r2, [r3, #15]	@ zero_extendqisi2
 464 000c D2B2     		uxtb	r2, r2
 465 000e 0549     		ldr	r1, .L53+8
 466 0010 0A70     		strb	r2, [r1]
 697:Generated_Source\PSoC5/CAN_TX_RX_func.c ****         /* `#END` */
 698:Generated_Source\PSoC5/CAN_TX_RX_func.c **** 
 699:Generated_Source\PSoC5/CAN_TX_RX_func.c ****         #ifdef CAN_RECEIVE_MSG_Torque_Request_Command_CALLBACK
 700:Generated_Source\PSoC5/CAN_TX_RX_func.c ****             CAN_ReceiveMsg_Torque_Request_Command_Callback();
 701:Generated_Source\PSoC5/CAN_TX_RX_func.c ****         #endif /* CAN_RECEIVE_MSG_Torque_Request_Command_CALLBACK */
 702:Generated_Source\PSoC5/CAN_TX_RX_func.c **** 
 703:Generated_Source\PSoC5/CAN_TX_RX_func.c ****         CAN_RX[0u].rxcmd.byte[0u] |= CAN_RX_ACK_MSG;
 467              		.loc 1 703 0
 468 0012 1A78     		ldrb	r2, [r3]	@ zero_extendqisi2
 469 0014 42F00102 		orr	r2, r2, #1
 470 0018 1A70     		strb	r2, [r3]
 471 001a 7047     		bx	lr
 472              	.L54:
 473              		.align	2
 474              	.L53:
 475 001c A0A00040 		.word	1073782944
 476 0020 00000000 		.word	HV_REQUEST_TR
 477 0024 00000000 		.word	VEHICLE_STATE
 478              		.cfi_endproc
 479              	.LFE7:
ARM GAS  C:\Users\leoja\AppData\Local\Temp\ccKgfOkx.s 			page 22


 480              		.size	CAN_ReceiveMsgTorque_Request_Command, .-CAN_ReceiveMsgTorque_Request_Command
 481              		.section	.text.CAN_ReceiveMsgMC_Debug,"ax",%progbits
 482              		.align	2
 483              		.global	CAN_ReceiveMsgMC_Debug
 484              		.thumb
 485              		.thumb_func
 486              		.type	CAN_ReceiveMsgMC_Debug, %function
 487              	CAN_ReceiveMsgMC_Debug:
 488              	.LFB8:
 704:Generated_Source\PSoC5/CAN_TX_RX_func.c ****     }
 705:Generated_Source\PSoC5/CAN_TX_RX_func.c **** #endif /* CAN_RX0_FUNC_ENABLE */
 706:Generated_Source\PSoC5/CAN_TX_RX_func.c **** 
 707:Generated_Source\PSoC5/CAN_TX_RX_func.c **** 
 708:Generated_Source\PSoC5/CAN_TX_RX_func.c **** #if (CAN_RX1_FUNC_ENABLE)
 709:Generated_Source\PSoC5/CAN_TX_RX_func.c ****     /*******************************************************************************
 710:Generated_Source\PSoC5/CAN_TX_RX_func.c ****     * FUNCTION NAME:    CAN_ReceiveMsgMC_Debug
 711:Generated_Source\PSoC5/CAN_TX_RX_func.c ****     ********************************************************************************
 712:Generated_Source\PSoC5/CAN_TX_RX_func.c ****     *
 713:Generated_Source\PSoC5/CAN_TX_RX_func.c ****     * Summary:
 714:Generated_Source\PSoC5/CAN_TX_RX_func.c ****     *  This function is the entry point to Receive Message 1 Interrupt. Clears the
 715:Generated_Source\PSoC5/CAN_TX_RX_func.c ****     *  Receive Message 1 interrupt flag. Generated only for the Receive mailbox
 716:Generated_Source\PSoC5/CAN_TX_RX_func.c ****     *  designed as Full.
 717:Generated_Source\PSoC5/CAN_TX_RX_func.c ****     *
 718:Generated_Source\PSoC5/CAN_TX_RX_func.c ****     * Parameters:
 719:Generated_Source\PSoC5/CAN_TX_RX_func.c ****     *  None.
 720:Generated_Source\PSoC5/CAN_TX_RX_func.c ****     *
 721:Generated_Source\PSoC5/CAN_TX_RX_func.c ****     * Return:
 722:Generated_Source\PSoC5/CAN_TX_RX_func.c ****     *  None.
 723:Generated_Source\PSoC5/CAN_TX_RX_func.c ****     *
 724:Generated_Source\PSoC5/CAN_TX_RX_func.c ****     * Reentrant:
 725:Generated_Source\PSoC5/CAN_TX_RX_func.c ****     *  Depends on the Customer code.
 726:Generated_Source\PSoC5/CAN_TX_RX_func.c ****     *
 727:Generated_Source\PSoC5/CAN_TX_RX_func.c ****     *******************************************************************************/
 728:Generated_Source\PSoC5/CAN_TX_RX_func.c ****     void CAN_ReceiveMsgMC_Debug(void) 
 729:Generated_Source\PSoC5/CAN_TX_RX_func.c ****     {
 489              		.loc 1 729 0
 490              		.cfi_startproc
 491              		@ args = 0, pretend = 0, frame = 0
 492              		@ frame_needed = 0, uses_anonymous_args = 0
 493              		@ link register save eliminated.
 730:Generated_Source\PSoC5/CAN_TX_RX_func.c ****         /* `#START MESSAGE_MC_Debug_RECEIVED` */
 731:Generated_Source\PSoC5/CAN_TX_RX_func.c ****         SET_INTERLOCK = CAN_RX_DATA_BYTE1(CAN_RX_MAILBOX_MC_Debug);
 494              		.loc 1 731 0
 495 0000 0A4B     		ldr	r3, .L56
 496 0002 DA7A     		ldrb	r2, [r3, #11]	@ zero_extendqisi2
 497 0004 D2B2     		uxtb	r2, r2
 498 0006 0A49     		ldr	r1, .L56+4
 499 0008 0A70     		strb	r2, [r1]
 732:Generated_Source\PSoC5/CAN_TX_RX_func.c ****         HV_REQUEST_MC = CAN_RX_DATA_BYTE2(CAN_RX_MAILBOX_MC_Debug);
 500              		.loc 1 732 0
 501 000a 9A7A     		ldrb	r2, [r3, #10]	@ zero_extendqisi2
 502 000c D2B2     		uxtb	r2, r2
 503 000e 0949     		ldr	r1, .L56+8
 504 0010 0A70     		strb	r2, [r1]
 733:Generated_Source\PSoC5/CAN_TX_RX_func.c ****         STATE = CAN_RX_DATA_BYTE3(CAN_RX_MAILBOX_MC_Debug);
 505              		.loc 1 733 0
 506 0012 5A7A     		ldrb	r2, [r3, #9]	@ zero_extendqisi2
ARM GAS  C:\Users\leoja\AppData\Local\Temp\ccKgfOkx.s 			page 23


 507 0014 D2B2     		uxtb	r2, r2
 508 0016 0849     		ldr	r1, .L56+12
 509 0018 0A70     		strb	r2, [r1]
 734:Generated_Source\PSoC5/CAN_TX_RX_func.c ****         THROTTLE = CAN_RX_DATA_BYTE7(CAN_RX_MAILBOX_MC_Debug);
 510              		.loc 1 734 0
 511 001a 5A7B     		ldrb	r2, [r3, #13]	@ zero_extendqisi2
 512 001c D2B2     		uxtb	r2, r2
 513 001e 0749     		ldr	r1, .L56+16
 514 0020 0A70     		strb	r2, [r1]
 735:Generated_Source\PSoC5/CAN_TX_RX_func.c ****         /* `#END` */
 736:Generated_Source\PSoC5/CAN_TX_RX_func.c **** 
 737:Generated_Source\PSoC5/CAN_TX_RX_func.c ****         #ifdef CAN_RECEIVE_MSG_MC_Debug_CALLBACK
 738:Generated_Source\PSoC5/CAN_TX_RX_func.c ****             CAN_ReceiveMsg_MC_Debug_Callback();
 739:Generated_Source\PSoC5/CAN_TX_RX_func.c ****         #endif /* CAN_RECEIVE_MSG_MC_Debug_CALLBACK */
 740:Generated_Source\PSoC5/CAN_TX_RX_func.c **** 
 741:Generated_Source\PSoC5/CAN_TX_RX_func.c ****         CAN_RX[1u].rxcmd.byte[0u] |= CAN_RX_ACK_MSG;
 515              		.loc 1 741 0
 516 0022 1A78     		ldrb	r2, [r3]	@ zero_extendqisi2
 517 0024 42F00102 		orr	r2, r2, #1
 518 0028 1A70     		strb	r2, [r3]
 519 002a 7047     		bx	lr
 520              	.L57:
 521              		.align	2
 522              	.L56:
 523 002c C0A00040 		.word	1073782976
 524 0030 00000000 		.word	SET_INTERLOCK
 525 0034 00000000 		.word	HV_REQUEST_MC
 526 0038 00000000 		.word	STATE
 527 003c 00000000 		.word	THROTTLE
 528              		.cfi_endproc
 529              	.LFE8:
 530              		.size	CAN_ReceiveMsgMC_Debug, .-CAN_ReceiveMsgMC_Debug
 531              		.section	.text.CAN_ReceiveMsgMC_ESTOP,"ax",%progbits
 532              		.align	2
 533              		.global	CAN_ReceiveMsgMC_ESTOP
 534              		.thumb
 535              		.thumb_func
 536              		.type	CAN_ReceiveMsgMC_ESTOP, %function
 537              	CAN_ReceiveMsgMC_ESTOP:
 538              	.LFB9:
 742:Generated_Source\PSoC5/CAN_TX_RX_func.c ****     }
 743:Generated_Source\PSoC5/CAN_TX_RX_func.c **** #endif /* CAN_RX1_FUNC_ENABLE */
 744:Generated_Source\PSoC5/CAN_TX_RX_func.c **** 
 745:Generated_Source\PSoC5/CAN_TX_RX_func.c **** 
 746:Generated_Source\PSoC5/CAN_TX_RX_func.c **** #if (CAN_RX2_FUNC_ENABLE)
 747:Generated_Source\PSoC5/CAN_TX_RX_func.c ****     /*******************************************************************************
 748:Generated_Source\PSoC5/CAN_TX_RX_func.c ****     * FUNCTION NAME:   CAN_ReceiveMsgMC_ESTOP
 749:Generated_Source\PSoC5/CAN_TX_RX_func.c ****     ********************************************************************************
 750:Generated_Source\PSoC5/CAN_TX_RX_func.c ****     *
 751:Generated_Source\PSoC5/CAN_TX_RX_func.c ****     * Summary:
 752:Generated_Source\PSoC5/CAN_TX_RX_func.c ****     *  This function is the entry point to Receive Message 2 Interrupt. Clears the
 753:Generated_Source\PSoC5/CAN_TX_RX_func.c ****     *  Receive Message 2 interrupt flag. Generated only for the Receive mailbox
 754:Generated_Source\PSoC5/CAN_TX_RX_func.c ****     *  designed as Full.
 755:Generated_Source\PSoC5/CAN_TX_RX_func.c ****     *
 756:Generated_Source\PSoC5/CAN_TX_RX_func.c ****     * Parameters:
 757:Generated_Source\PSoC5/CAN_TX_RX_func.c ****     *  None.
 758:Generated_Source\PSoC5/CAN_TX_RX_func.c ****     *
ARM GAS  C:\Users\leoja\AppData\Local\Temp\ccKgfOkx.s 			page 24


 759:Generated_Source\PSoC5/CAN_TX_RX_func.c ****     * Return:
 760:Generated_Source\PSoC5/CAN_TX_RX_func.c ****     *  None.
 761:Generated_Source\PSoC5/CAN_TX_RX_func.c ****     *
 762:Generated_Source\PSoC5/CAN_TX_RX_func.c ****     * Reentrant:
 763:Generated_Source\PSoC5/CAN_TX_RX_func.c ****     *  Depends on the Customer code.
 764:Generated_Source\PSoC5/CAN_TX_RX_func.c ****     *
 765:Generated_Source\PSoC5/CAN_TX_RX_func.c ****     *******************************************************************************/
 766:Generated_Source\PSoC5/CAN_TX_RX_func.c ****     void CAN_ReceiveMsgMC_ESTOP(void) 
 767:Generated_Source\PSoC5/CAN_TX_RX_func.c ****     {
 539              		.loc 1 767 0
 540              		.cfi_startproc
 541              		@ args = 0, pretend = 0, frame = 0
 542              		@ frame_needed = 0, uses_anonymous_args = 0
 543              		@ link register save eliminated.
 768:Generated_Source\PSoC5/CAN_TX_RX_func.c ****         /* `#START MESSAGE_MC_ESTOP_RECEIVED` */
 769:Generated_Source\PSoC5/CAN_TX_RX_func.c ****         ESTOP_MC = CAN_RX_DATA_BYTE1(CAN_RX_MAILBOX_MC_ESTOP);
 544              		.loc 1 769 0
 545 0000 044B     		ldr	r3, .L59
 546 0002 DA7A     		ldrb	r2, [r3, #11]	@ zero_extendqisi2
 547 0004 D2B2     		uxtb	r2, r2
 548 0006 0449     		ldr	r1, .L59+4
 549 0008 0A70     		strb	r2, [r1]
 770:Generated_Source\PSoC5/CAN_TX_RX_func.c ****         /* `#END` */
 771:Generated_Source\PSoC5/CAN_TX_RX_func.c **** 
 772:Generated_Source\PSoC5/CAN_TX_RX_func.c ****         #ifdef CAN_RECEIVE_MSG_MC_ESTOP_CALLBACK
 773:Generated_Source\PSoC5/CAN_TX_RX_func.c ****             CAN_ReceiveMsg_MC_ESTOP_Callback();
 774:Generated_Source\PSoC5/CAN_TX_RX_func.c ****         #endif /* CAN_RECEIVE_MSG_MC_ESTOP_CALLBACK */
 775:Generated_Source\PSoC5/CAN_TX_RX_func.c **** 
 776:Generated_Source\PSoC5/CAN_TX_RX_func.c ****         CAN_RX[2u].rxcmd.byte[0u] |= CAN_RX_ACK_MSG;
 550              		.loc 1 776 0
 551 000a 1A78     		ldrb	r2, [r3]	@ zero_extendqisi2
 552 000c 42F00102 		orr	r2, r2, #1
 553 0010 1A70     		strb	r2, [r3]
 554 0012 7047     		bx	lr
 555              	.L60:
 556              		.align	2
 557              	.L59:
 558 0014 E0A00040 		.word	1073783008
 559 0018 00000000 		.word	ESTOP_MC
 560              		.cfi_endproc
 561              	.LFE9:
 562              		.size	CAN_ReceiveMsgMC_ESTOP, .-CAN_ReceiveMsgMC_ESTOP
 563              		.section	.text.CAN_ReceiveMsgBSPD_Flags,"ax",%progbits
 564              		.align	2
 565              		.global	CAN_ReceiveMsgBSPD_Flags
 566              		.thumb
 567              		.thumb_func
 568              		.type	CAN_ReceiveMsgBSPD_Flags, %function
 569              	CAN_ReceiveMsgBSPD_Flags:
 570              	.LFB10:
 777:Generated_Source\PSoC5/CAN_TX_RX_func.c ****     }
 778:Generated_Source\PSoC5/CAN_TX_RX_func.c **** #endif /* CAN_RX2_FUNC_ENABLE */
 779:Generated_Source\PSoC5/CAN_TX_RX_func.c **** 
 780:Generated_Source\PSoC5/CAN_TX_RX_func.c **** 
 781:Generated_Source\PSoC5/CAN_TX_RX_func.c **** #if (CAN_RX3_FUNC_ENABLE)
 782:Generated_Source\PSoC5/CAN_TX_RX_func.c ****     /*******************************************************************************
 783:Generated_Source\PSoC5/CAN_TX_RX_func.c ****     * FUNCTION NAME:   CAN_ReceiveMsgBSPD_Flags
ARM GAS  C:\Users\leoja\AppData\Local\Temp\ccKgfOkx.s 			page 25


 784:Generated_Source\PSoC5/CAN_TX_RX_func.c ****     ********************************************************************************
 785:Generated_Source\PSoC5/CAN_TX_RX_func.c ****     *
 786:Generated_Source\PSoC5/CAN_TX_RX_func.c ****     * Summary:
 787:Generated_Source\PSoC5/CAN_TX_RX_func.c ****     *  This function is the entry point to Receive Message 3 Interrupt. Clears the
 788:Generated_Source\PSoC5/CAN_TX_RX_func.c ****     *  Receive Message 3 interrupt flag. Generated only for the Receive mailbox
 789:Generated_Source\PSoC5/CAN_TX_RX_func.c ****     *  designed as Full.
 790:Generated_Source\PSoC5/CAN_TX_RX_func.c ****     *
 791:Generated_Source\PSoC5/CAN_TX_RX_func.c ****     * Parameters:
 792:Generated_Source\PSoC5/CAN_TX_RX_func.c ****     *  None.
 793:Generated_Source\PSoC5/CAN_TX_RX_func.c ****     *
 794:Generated_Source\PSoC5/CAN_TX_RX_func.c ****     * Return:
 795:Generated_Source\PSoC5/CAN_TX_RX_func.c ****     *  None.
 796:Generated_Source\PSoC5/CAN_TX_RX_func.c ****     *
 797:Generated_Source\PSoC5/CAN_TX_RX_func.c ****     * Reentrant:
 798:Generated_Source\PSoC5/CAN_TX_RX_func.c ****     *  Depends on the Customer code.
 799:Generated_Source\PSoC5/CAN_TX_RX_func.c ****     *
 800:Generated_Source\PSoC5/CAN_TX_RX_func.c ****     *******************************************************************************/
 801:Generated_Source\PSoC5/CAN_TX_RX_func.c ****     void CAN_ReceiveMsgBSPD_Flags(void) 
 802:Generated_Source\PSoC5/CAN_TX_RX_func.c ****     {
 571              		.loc 1 802 0
 572              		.cfi_startproc
 573              		@ args = 0, pretend = 0, frame = 0
 574              		@ frame_needed = 0, uses_anonymous_args = 0
 575              		@ link register save eliminated.
 803:Generated_Source\PSoC5/CAN_TX_RX_func.c ****         /* `#START MESSAGE_BSPD_Flags_RECEIVED` */
 804:Generated_Source\PSoC5/CAN_TX_RX_func.c ****         HV_REQUEST_TR = CAN_RX_DATA_BYTE1(CAN_RX_MAILBOX_Torque_Request_Command);
 576              		.loc 1 804 0
 577 0000 094B     		ldr	r3, .L62
 578 0002 DB7A     		ldrb	r3, [r3, #11]	@ zero_extendqisi2
 579 0004 DBB2     		uxtb	r3, r3
 580 0006 094A     		ldr	r2, .L62+4
 581 0008 1370     		strb	r3, [r2]
 805:Generated_Source\PSoC5/CAN_TX_RX_func.c ****         THROTTLE_HIGH = CAN_RX_DATA_BYTE2(CAN_RX_MAILBOX_BSPD_Flags);
 582              		.loc 1 805 0
 583 000a 094B     		ldr	r3, .L62+8
 584 000c 9A7A     		ldrb	r2, [r3, #10]	@ zero_extendqisi2
 585 000e D2B2     		uxtb	r2, r2
 586 0010 0849     		ldr	r1, .L62+12
 587 0012 0A70     		strb	r2, [r1]
 806:Generated_Source\PSoC5/CAN_TX_RX_func.c ****         THROTTLE_LOW = CAN_RX_DATA_BYTE3(CAN_RX_MAILBOX_BSPD_Flags);
 588              		.loc 1 806 0
 589 0014 5A7A     		ldrb	r2, [r3, #9]	@ zero_extendqisi2
 590 0016 D2B2     		uxtb	r2, r2
 591 0018 0749     		ldr	r1, .L62+16
 592 001a 0A70     		strb	r2, [r1]
 807:Generated_Source\PSoC5/CAN_TX_RX_func.c ****         /* `#END` */
 808:Generated_Source\PSoC5/CAN_TX_RX_func.c **** 
 809:Generated_Source\PSoC5/CAN_TX_RX_func.c ****         #ifdef CAN_RECEIVE_MSG_BSPD_Flags_CALLBACK
 810:Generated_Source\PSoC5/CAN_TX_RX_func.c ****             CAN_ReceiveMsg_BSPD_Flags_Callback();
 811:Generated_Source\PSoC5/CAN_TX_RX_func.c ****         #endif /* CAN_RECEIVE_MSG_BSPD_Flags_CALLBACK */
 812:Generated_Source\PSoC5/CAN_TX_RX_func.c **** 
 813:Generated_Source\PSoC5/CAN_TX_RX_func.c ****         CAN_RX[3u].rxcmd.byte[0u] |= CAN_RX_ACK_MSG;
 593              		.loc 1 813 0
 594 001c 1A78     		ldrb	r2, [r3]	@ zero_extendqisi2
 595 001e 42F00102 		orr	r2, r2, #1
 596 0022 1A70     		strb	r2, [r3]
 597 0024 7047     		bx	lr
ARM GAS  C:\Users\leoja\AppData\Local\Temp\ccKgfOkx.s 			page 26


 598              	.L63:
 599 0026 00BF     		.align	2
 600              	.L62:
 601 0028 A0A00040 		.word	1073782944
 602 002c 00000000 		.word	HV_REQUEST_TR
 603 0030 00A10040 		.word	1073783040
 604 0034 00000000 		.word	THROTTLE_HIGH
 605 0038 00000000 		.word	THROTTLE_LOW
 606              		.cfi_endproc
 607              	.LFE10:
 608              		.size	CAN_ReceiveMsgBSPD_Flags, .-CAN_ReceiveMsgBSPD_Flags
 609              		.section	.text.CAN_ReceiveMsgMC_Fault,"ax",%progbits
 610              		.align	2
 611              		.global	CAN_ReceiveMsgMC_Fault
 612              		.thumb
 613              		.thumb_func
 614              		.type	CAN_ReceiveMsgMC_Fault, %function
 615              	CAN_ReceiveMsgMC_Fault:
 616              	.LFB11:
 814:Generated_Source\PSoC5/CAN_TX_RX_func.c ****     }
 815:Generated_Source\PSoC5/CAN_TX_RX_func.c **** #endif /* CAN_RX3_FUNC_ENABLE */
 816:Generated_Source\PSoC5/CAN_TX_RX_func.c **** 
 817:Generated_Source\PSoC5/CAN_TX_RX_func.c **** 
 818:Generated_Source\PSoC5/CAN_TX_RX_func.c **** #if (CAN_RX4_FUNC_ENABLE)
 819:Generated_Source\PSoC5/CAN_TX_RX_func.c ****     /*******************************************************************************
 820:Generated_Source\PSoC5/CAN_TX_RX_func.c ****     * FUNCTION NAME:   CAN_ReceiveMsgMC_Fault
 821:Generated_Source\PSoC5/CAN_TX_RX_func.c ****     ********************************************************************************
 822:Generated_Source\PSoC5/CAN_TX_RX_func.c ****     *
 823:Generated_Source\PSoC5/CAN_TX_RX_func.c ****     * Summary:
 824:Generated_Source\PSoC5/CAN_TX_RX_func.c ****     *  This function is the entry point to Receive Message 4 Interrupt. Clears the
 825:Generated_Source\PSoC5/CAN_TX_RX_func.c ****     *  Receive Message 4 interrupt flag. Generated only for the Receive mailbox
 826:Generated_Source\PSoC5/CAN_TX_RX_func.c ****     *  designed as Full.
 827:Generated_Source\PSoC5/CAN_TX_RX_func.c ****     *
 828:Generated_Source\PSoC5/CAN_TX_RX_func.c ****     * Parameters:
 829:Generated_Source\PSoC5/CAN_TX_RX_func.c ****     *  None.
 830:Generated_Source\PSoC5/CAN_TX_RX_func.c ****     *
 831:Generated_Source\PSoC5/CAN_TX_RX_func.c ****     * Return:
 832:Generated_Source\PSoC5/CAN_TX_RX_func.c ****     *  None.
 833:Generated_Source\PSoC5/CAN_TX_RX_func.c ****     *
 834:Generated_Source\PSoC5/CAN_TX_RX_func.c ****     * Reentrant:
 835:Generated_Source\PSoC5/CAN_TX_RX_func.c ****     *  Depends on the Customer code.
 836:Generated_Source\PSoC5/CAN_TX_RX_func.c ****     *
 837:Generated_Source\PSoC5/CAN_TX_RX_func.c ****     *******************************************************************************/
 838:Generated_Source\PSoC5/CAN_TX_RX_func.c ****     void CAN_ReceiveMsgMC_Fault(void) 
 839:Generated_Source\PSoC5/CAN_TX_RX_func.c ****     {
 617              		.loc 1 839 0
 618              		.cfi_startproc
 619              		@ args = 0, pretend = 0, frame = 0
 620              		@ frame_needed = 0, uses_anonymous_args = 0
 621              		@ link register save eliminated.
 840:Generated_Source\PSoC5/CAN_TX_RX_func.c ****         /* `#START MESSAGE_MC_Fault_RECEIVED` */
 841:Generated_Source\PSoC5/CAN_TX_RX_func.c ****         
 842:Generated_Source\PSoC5/CAN_TX_RX_func.c ****         POST_FAULT_LO_1 = CAN_RX_DATA_BYTE1(CAN_RX_MAILBOX_MC_Fault);
 622              		.loc 1 842 0
 623 0000 124B     		ldr	r3, .L65
 624 0002 DA7A     		ldrb	r2, [r3, #11]	@ zero_extendqisi2
 625 0004 D2B2     		uxtb	r2, r2
ARM GAS  C:\Users\leoja\AppData\Local\Temp\ccKgfOkx.s 			page 27


 626 0006 1249     		ldr	r1, .L65+4
 627 0008 0A70     		strb	r2, [r1]
 843:Generated_Source\PSoC5/CAN_TX_RX_func.c ****         POST_FAULT_LO_2 = CAN_RX_DATA_BYTE2(CAN_RX_MAILBOX_MC_Fault);
 628              		.loc 1 843 0
 629 000a 9A7A     		ldrb	r2, [r3, #10]	@ zero_extendqisi2
 630 000c D2B2     		uxtb	r2, r2
 631 000e 1149     		ldr	r1, .L65+8
 632 0010 0A70     		strb	r2, [r1]
 844:Generated_Source\PSoC5/CAN_TX_RX_func.c ****         POST_FAULT_HI_1 = CAN_RX_DATA_BYTE3(CAN_RX_MAILBOX_MC_Fault);
 633              		.loc 1 844 0
 634 0012 5A7A     		ldrb	r2, [r3, #9]	@ zero_extendqisi2
 635 0014 D2B2     		uxtb	r2, r2
 636 0016 1049     		ldr	r1, .L65+12
 637 0018 0A70     		strb	r2, [r1]
 845:Generated_Source\PSoC5/CAN_TX_RX_func.c ****         POST_FAULT_HI_2 = CAN_RX_DATA_BYTE4(CAN_RX_MAILBOX_MC_Fault);
 638              		.loc 1 845 0
 639 001a 1A7A     		ldrb	r2, [r3, #8]	@ zero_extendqisi2
 640 001c D2B2     		uxtb	r2, r2
 641 001e 0F49     		ldr	r1, .L65+16
 642 0020 0A70     		strb	r2, [r1]
 846:Generated_Source\PSoC5/CAN_TX_RX_func.c ****         RUN_FAULT_LO_1 = CAN_RX_DATA_BYTE5(CAN_RX_MAILBOX_MC_Fault);
 643              		.loc 1 846 0
 644 0022 DA7B     		ldrb	r2, [r3, #15]	@ zero_extendqisi2
 645 0024 D2B2     		uxtb	r2, r2
 646 0026 0E49     		ldr	r1, .L65+20
 647 0028 0A70     		strb	r2, [r1]
 847:Generated_Source\PSoC5/CAN_TX_RX_func.c ****         RUN_FAULT_LO_2 = CAN_RX_DATA_BYTE6(CAN_RX_MAILBOX_MC_Fault);
 648              		.loc 1 847 0
 649 002a 9A7B     		ldrb	r2, [r3, #14]	@ zero_extendqisi2
 650 002c D2B2     		uxtb	r2, r2
 651 002e 0D49     		ldr	r1, .L65+24
 652 0030 0A70     		strb	r2, [r1]
 848:Generated_Source\PSoC5/CAN_TX_RX_func.c ****         RUN_FAULT_HI_1 = CAN_RX_DATA_BYTE7(CAN_RX_MAILBOX_MC_Fault);
 653              		.loc 1 848 0
 654 0032 5A7B     		ldrb	r2, [r3, #13]	@ zero_extendqisi2
 655 0034 D2B2     		uxtb	r2, r2
 656 0036 0C49     		ldr	r1, .L65+28
 657 0038 0A70     		strb	r2, [r1]
 849:Generated_Source\PSoC5/CAN_TX_RX_func.c ****         RUN_FAULT_HI_2 = CAN_RX_DATA_BYTE8(CAN_RX_MAILBOX_MC_Fault);;
 658              		.loc 1 849 0
 659 003a 1A7B     		ldrb	r2, [r3, #12]	@ zero_extendqisi2
 660 003c D2B2     		uxtb	r2, r2
 661 003e 0B49     		ldr	r1, .L65+32
 662 0040 0A70     		strb	r2, [r1]
 850:Generated_Source\PSoC5/CAN_TX_RX_func.c **** 
 851:Generated_Source\PSoC5/CAN_TX_RX_func.c ****         /* `#END` */
 852:Generated_Source\PSoC5/CAN_TX_RX_func.c **** 
 853:Generated_Source\PSoC5/CAN_TX_RX_func.c ****         #ifdef CAN_RECEIVE_MSG_MC_Fault_CALLBACK
 854:Generated_Source\PSoC5/CAN_TX_RX_func.c ****             CAN_ReceiveMsg_MC_Fault_Callback();
 855:Generated_Source\PSoC5/CAN_TX_RX_func.c ****         #endif /* CAN_RECEIVE_MSG_MC_Fault_CALLBACK */
 856:Generated_Source\PSoC5/CAN_TX_RX_func.c **** 
 857:Generated_Source\PSoC5/CAN_TX_RX_func.c ****         CAN_RX[4u].rxcmd.byte[0u] |= CAN_RX_ACK_MSG;
 663              		.loc 1 857 0
 664 0042 1A78     		ldrb	r2, [r3]	@ zero_extendqisi2
 665 0044 42F00102 		orr	r2, r2, #1
 666 0048 1A70     		strb	r2, [r3]
 667 004a 7047     		bx	lr
ARM GAS  C:\Users\leoja\AppData\Local\Temp\ccKgfOkx.s 			page 28


 668              	.L66:
 669              		.align	2
 670              	.L65:
 671 004c 20A10040 		.word	1073783072
 672 0050 00000000 		.word	POST_FAULT_LO_1
 673 0054 00000000 		.word	POST_FAULT_LO_2
 674 0058 00000000 		.word	POST_FAULT_HI_1
 675 005c 00000000 		.word	POST_FAULT_HI_2
 676 0060 00000000 		.word	RUN_FAULT_LO_1
 677 0064 00000000 		.word	RUN_FAULT_LO_2
 678 0068 00000000 		.word	RUN_FAULT_HI_1
 679 006c 00000000 		.word	RUN_FAULT_HI_2
 680              		.cfi_endproc
 681              	.LFE11:
 682              		.size	CAN_ReceiveMsgMC_Fault, .-CAN_ReceiveMsgMC_Fault
 683              		.section	.text.CAN_ReceiveMsgMC_Voltage,"ax",%progbits
 684              		.align	2
 685              		.global	CAN_ReceiveMsgMC_Voltage
 686              		.thumb
 687              		.thumb_func
 688              		.type	CAN_ReceiveMsgMC_Voltage, %function
 689              	CAN_ReceiveMsgMC_Voltage:
 690              	.LFB12:
 858:Generated_Source\PSoC5/CAN_TX_RX_func.c ****     }
 859:Generated_Source\PSoC5/CAN_TX_RX_func.c **** #endif /* CAN_RX4_FUNC_ENABLE */
 860:Generated_Source\PSoC5/CAN_TX_RX_func.c **** 
 861:Generated_Source\PSoC5/CAN_TX_RX_func.c **** 
 862:Generated_Source\PSoC5/CAN_TX_RX_func.c **** #if (CAN_RX5_FUNC_ENABLE)
 863:Generated_Source\PSoC5/CAN_TX_RX_func.c ****     /*******************************************************************************
 864:Generated_Source\PSoC5/CAN_TX_RX_func.c ****     * FUNCTION NAME:   CAN_ReceiveMsgMC_Voltage
 865:Generated_Source\PSoC5/CAN_TX_RX_func.c ****     ********************************************************************************
 866:Generated_Source\PSoC5/CAN_TX_RX_func.c ****     *
 867:Generated_Source\PSoC5/CAN_TX_RX_func.c ****     * Summary:
 868:Generated_Source\PSoC5/CAN_TX_RX_func.c ****     *  This function is the entry point to Receive Message 5 Interrupt. Clears the
 869:Generated_Source\PSoC5/CAN_TX_RX_func.c ****     *  Receive Message 5 interrupt flag. Generated only for the Receive mailbox
 870:Generated_Source\PSoC5/CAN_TX_RX_func.c ****     *  designed as Full.
 871:Generated_Source\PSoC5/CAN_TX_RX_func.c ****     *
 872:Generated_Source\PSoC5/CAN_TX_RX_func.c ****     * Parameters:
 873:Generated_Source\PSoC5/CAN_TX_RX_func.c ****     *  None.
 874:Generated_Source\PSoC5/CAN_TX_RX_func.c ****     *
 875:Generated_Source\PSoC5/CAN_TX_RX_func.c ****     * Return:
 876:Generated_Source\PSoC5/CAN_TX_RX_func.c ****     *  None.
 877:Generated_Source\PSoC5/CAN_TX_RX_func.c ****     *
 878:Generated_Source\PSoC5/CAN_TX_RX_func.c ****     * Reentrant:
 879:Generated_Source\PSoC5/CAN_TX_RX_func.c ****     *  Depends on the Customer code.
 880:Generated_Source\PSoC5/CAN_TX_RX_func.c ****     *
 881:Generated_Source\PSoC5/CAN_TX_RX_func.c ****     *******************************************************************************/
 882:Generated_Source\PSoC5/CAN_TX_RX_func.c ****     void CAN_ReceiveMsgMC_Voltage(void) 
 883:Generated_Source\PSoC5/CAN_TX_RX_func.c ****     {
 691              		.loc 1 883 0
 692              		.cfi_startproc
 693              		@ args = 0, pretend = 0, frame = 0
 694              		@ frame_needed = 0, uses_anonymous_args = 0
 695              		@ link register save eliminated.
 884:Generated_Source\PSoC5/CAN_TX_RX_func.c ****         /* `#START MESSAGE_MC_Voltage_RECEIVED` */
 885:Generated_Source\PSoC5/CAN_TX_RX_func.c ****         MC_VOLTAGE_UPPER = CAN_RX_DATA_BYTE1(CAN_RX_MAILBOX_MC_Voltage);
 696              		.loc 1 885 0
ARM GAS  C:\Users\leoja\AppData\Local\Temp\ccKgfOkx.s 			page 29


 697 0000 064B     		ldr	r3, .L68
 698 0002 DA7A     		ldrb	r2, [r3, #11]	@ zero_extendqisi2
 699 0004 D2B2     		uxtb	r2, r2
 700 0006 0649     		ldr	r1, .L68+4
 701 0008 0A70     		strb	r2, [r1]
 886:Generated_Source\PSoC5/CAN_TX_RX_func.c ****         MC_VOLTAGE_LOWER = CAN_RX_DATA_BYTE2(CAN_RX_MAILBOX_MC_Voltage);
 702              		.loc 1 886 0
 703 000a 9A7A     		ldrb	r2, [r3, #10]	@ zero_extendqisi2
 704 000c D2B2     		uxtb	r2, r2
 705 000e 0549     		ldr	r1, .L68+8
 706 0010 0A70     		strb	r2, [r1]
 887:Generated_Source\PSoC5/CAN_TX_RX_func.c ****         /* `#END` */
 888:Generated_Source\PSoC5/CAN_TX_RX_func.c **** 
 889:Generated_Source\PSoC5/CAN_TX_RX_func.c ****         #ifdef CAN_RECEIVE_MSG_MC_Voltage_CALLBACK
 890:Generated_Source\PSoC5/CAN_TX_RX_func.c ****             CAN_ReceiveMsg_MC_Voltage_Callback();
 891:Generated_Source\PSoC5/CAN_TX_RX_func.c ****         #endif /* CAN_RECEIVE_MSG_MC_Voltage_CALLBACK */
 892:Generated_Source\PSoC5/CAN_TX_RX_func.c **** 
 893:Generated_Source\PSoC5/CAN_TX_RX_func.c ****         CAN_RX[5u].rxcmd.byte[0u] |= CAN_RX_ACK_MSG;
 707              		.loc 1 893 0
 708 0012 1A78     		ldrb	r2, [r3]	@ zero_extendqisi2
 709 0014 42F00102 		orr	r2, r2, #1
 710 0018 1A70     		strb	r2, [r3]
 711 001a 7047     		bx	lr
 712              	.L69:
 713              		.align	2
 714              	.L68:
 715 001c 40A10040 		.word	1073783104
 716 0020 00000000 		.word	MC_VOLTAGE_UPPER
 717 0024 00000000 		.word	MC_VOLTAGE_LOWER
 718              		.cfi_endproc
 719              	.LFE12:
 720              		.size	CAN_ReceiveMsgMC_Voltage, .-CAN_ReceiveMsgMC_Voltage
 721              		.text
 722              	.Letext0:
 723              		.file 2 "c:\\program files (x86)\\cypress\\psoc creator\\4.4\\psoc creator\\import\\gnu\\arm\\5.4.
 724              		.file 3 "c:\\program files (x86)\\cypress\\psoc creator\\4.4\\psoc creator\\import\\gnu\\arm\\5.4.
 725              		.file 4 "Generated_Source\\PSoC5\\cytypes.h"
 726              		.file 5 "Generated_Source\\PSoC5\\CAN.h"