ARM GAS  C:\Users\JUSTIN~1\AppData\Local\Temp\cc2B6kPx.s 			page 1


   1              		.syntax unified
   2              		.cpu cortex-m3
   3              		.fpu softvfp
   4              		.eabi_attribute 20, 1
   5              		.eabi_attribute 21, 1
   6              		.eabi_attribute 23, 3
   7              		.eabi_attribute 24, 1
   8              		.eabi_attribute 25, 1
   9              		.eabi_attribute 26, 1
  10              		.eabi_attribute 30, 1
  11              		.eabi_attribute 34, 1
  12              		.eabi_attribute 18, 4
  13              		.thumb
  14              		.syntax unified
  15              		.file	"can_manager.c"
  16              		.text
  17              	.Ltext0:
  18              		.cfi_sections	.debug_frame
  19              		.section	.text.get_BMS_Voltage,"ax",%progbits
  20              		.align	2
  21              		.global	get_BMS_Voltage
  22              		.thumb
  23              		.thumb_func
  24              		.type	get_BMS_Voltage, %function
  25              	get_BMS_Voltage:
  26              	.LFB63:
  27              		.file 1 "can_manager.c"
   1:can_manager.c **** /* ========================================
   2:can_manager.c ****  * Can API for FRUCD
   3:can_manager.c ****  * Schuyler Alschuler 2016 - 2017
   4:can_manager.c ****  * ========================================
   5:can_manager.c **** */
   6:can_manager.c **** 
   7:can_manager.c **** /*******************************************
   8:can_manager.c ****  * Used to interface dashboard with CAN bus
   9:can_manager.c ****  * some functinality can be found in CAN_TX_RX_func.c
  10:can_manager.c ****  * which is a generated source file
  11:can_manager.c ****  * see the can component of the top design for specific mailboxes
  12:can_manager.c ****  ******************************************/
  13:can_manager.c **** 
  14:can_manager.c **** #include "can_manager.h"
  15:can_manager.c **** #include "CAN.h"
  16:can_manager.c **** #include "Precharge.h"
  17:can_manager.c **** 
  18:can_manager.c **** extern volatile vcu_state state;
  19:can_manager.c **** 
  20:can_manager.c **** volatile uint8_t THROTTLE_HIGH = 0;
  21:can_manager.c **** volatile uint8_t THROTTLE_LOW = 0;
  22:can_manager.c **** 
  23:can_manager.c **** volatile uint8_t ESTOP_MC = 0;
  24:can_manager.c **** //VCU Data
  25:can_manager.c **** volatile uint8_t HV_REQUEST_TR = 0;
  26:can_manager.c **** volatile uint8_t VEHICLE_STATE = 0;
  27:can_manager.c **** 
  28:can_manager.c **** //MC_DEBG
  29:can_manager.c **** volatile uint8_t THROTTLE = 0;
  30:can_manager.c **** volatile uint8_t SET_INTERLOCK = 0;
ARM GAS  C:\Users\JUSTIN~1\AppData\Local\Temp\cc2B6kPx.s 			page 2


  31:can_manager.c **** volatile uint8_t STATE = 0;
  32:can_manager.c **** volatile uint8_t HV_REQUEST_MC = 0;
  33:can_manager.c **** 
  34:can_manager.c **** //MC_FAULT
  35:can_manager.c **** volatile uint8_t POST_FAULT_LO_1 =0;
  36:can_manager.c **** volatile uint8_t POST_FAULT_LO_2 = 0;
  37:can_manager.c **** volatile uint8_t POST_FAULT_HI_1 = 0;
  38:can_manager.c **** volatile uint8_t POST_FAULT_HI_2 = 0;
  39:can_manager.c **** volatile uint8_t RUN_FAULT_LO_1 = 0;
  40:can_manager.c **** volatile uint8_t RUN_FAULT_LO_2 = 0;
  41:can_manager.c **** volatile uint8_t RUN_FAULT_HI_1 = 0;
  42:can_manager.c **** volatile uint8_t RUN_FAULT_HI_2 =0;
  43:can_manager.c **** 
  44:can_manager.c **** volatile uint8_t PACK_VOLTAGE_1; //Highest 8 bits
  45:can_manager.c **** volatile uint8_t PACK_VOLTAGE_2;
  46:can_manager.c **** volatile uint8_t PACK_VOLTAGE_3;
  47:can_manager.c **** volatile uint8_t PACK_VOLTAGE_4; //Lowest 8 bits
  48:can_manager.c **** 
  49:can_manager.c **** uint32_t get_BMS_Voltage() {
  28              		.loc 1 49 0
  29              		.cfi_startproc
  30              		@ args = 0, pretend = 0, frame = 0
  31              		@ frame_needed = 0, uses_anonymous_args = 0
  32              		@ link register save eliminated.
  33              	.LVL0:
  50:can_manager.c ****     uint32_t voltage = 0;
  51:can_manager.c ****     voltage |= PACK_VOLTAGE_1 << 24;
  34              		.loc 1 51 0
  35 0000 074B     		ldr	r3, .L2
  36 0002 1878     		ldrb	r0, [r3]	@ zero_extendqisi2
  37              	.LVL1:
  52:can_manager.c ****     voltage |= PACK_VOLTAGE_2 << 16;
  38              		.loc 1 52 0
  39 0004 074B     		ldr	r3, .L2+4
  40 0006 1B78     		ldrb	r3, [r3]	@ zero_extendqisi2
  41 0008 1B04     		lsls	r3, r3, #16
  42 000a 43EA0063 		orr	r3, r3, r0, lsl #24
  43              	.LVL2:
  53:can_manager.c ****     voltage |= PACK_VOLTAGE_3 << 8;
  44              		.loc 1 53 0
  45 000e 064A     		ldr	r2, .L2+8
  46 0010 1078     		ldrb	r0, [r2]	@ zero_extendqisi2
  47 0012 43EA0023 		orr	r3, r3, r0, lsl #8
  48              	.LVL3:
  54:can_manager.c ****     voltage |= PACK_VOLTAGE_4;
  49              		.loc 1 54 0
  50 0016 054A     		ldr	r2, .L2+12
  51 0018 1078     		ldrb	r0, [r2]	@ zero_extendqisi2
  52              	.LVL4:
  55:can_manager.c ****     
  56:can_manager.c ****     return voltage;
  57:can_manager.c **** }
  53              		.loc 1 57 0
  54 001a 1843     		orrs	r0, r0, r3
  55              	.LVL5:
  56 001c 7047     		bx	lr
  57              	.L3:
ARM GAS  C:\Users\JUSTIN~1\AppData\Local\Temp\cc2B6kPx.s 			page 3


  58 001e 00BF     		.align	2
  59              	.L2:
  60 0020 00000000 		.word	PACK_VOLTAGE_1
  61 0024 00000000 		.word	PACK_VOLTAGE_2
  62 0028 00000000 		.word	PACK_VOLTAGE_3
  63 002c 00000000 		.word	PACK_VOLTAGE_4
  64              		.cfi_endproc
  65              	.LFE63:
  66              		.size	get_BMS_Voltage, .-get_BMS_Voltage
  67              		.section	.text.get_HV_Requested,"ax",%progbits
  68              		.align	2
  69              		.global	get_HV_Requested
  70              		.thumb
  71              		.thumb_func
  72              		.type	get_HV_Requested, %function
  73              	get_HV_Requested:
  74              	.LFB64:
  58:can_manager.c **** 
  59:can_manager.c **** //Return the hv_requested state from the VCU.
  60:can_manager.c **** uint8_t get_HV_Requested()
  61:can_manager.c **** {
  75              		.loc 1 61 0
  76              		.cfi_startproc
  77              		@ args = 0, pretend = 0, frame = 0
  78              		@ frame_needed = 0, uses_anonymous_args = 0
  79              		@ link register save eliminated.
  62:can_manager.c ****     return HV_REQUEST_TR;   
  80              		.loc 1 62 0
  81 0000 014B     		ldr	r3, .L5
  82 0002 1878     		ldrb	r0, [r3]	@ zero_extendqisi2
  63:can_manager.c **** }
  83              		.loc 1 63 0
  84 0004 7047     		bx	lr
  85              	.L6:
  86 0006 00BF     		.align	2
  87              	.L5:
  88 0008 00000000 		.word	.LANCHOR0
  89              		.cfi_endproc
  90              	.LFE64:
  91              		.size	get_HV_Requested, .-get_HV_Requested
  92              		.section	.text.get_VEHICLE_STATE,"ax",%progbits
  93              		.align	2
  94              		.global	get_VEHICLE_STATE
  95              		.thumb
  96              		.thumb_func
  97              		.type	get_VEHICLE_STATE, %function
  98              	get_VEHICLE_STATE:
  99              	.LFB65:
  64:can_manager.c **** 
  65:can_manager.c **** //Returs the vehicle state from torque request CAN (different from state interlock machine)
  66:can_manager.c **** uint8_t get_VEHICLE_STATE()
  67:can_manager.c **** {
 100              		.loc 1 67 0
 101              		.cfi_startproc
 102              		@ args = 0, pretend = 0, frame = 0
 103              		@ frame_needed = 0, uses_anonymous_args = 0
 104              		@ link register save eliminated.
ARM GAS  C:\Users\JUSTIN~1\AppData\Local\Temp\cc2B6kPx.s 			page 4


  68:can_manager.c ****     return VEHICLE_STATE;   
 105              		.loc 1 68 0
 106 0000 014B     		ldr	r3, .L8
 107 0002 5878     		ldrb	r0, [r3, #1]	@ zero_extendqisi2
  69:can_manager.c **** }
 108              		.loc 1 69 0
 109 0004 7047     		bx	lr
 110              	.L9:
 111 0006 00BF     		.align	2
 112              	.L8:
 113 0008 00000000 		.word	.LANCHOR0
 114              		.cfi_endproc
 115              	.LFE65:
 116              		.size	get_VEHICLE_STATE, .-get_VEHICLE_STATE
 117              		.section	.text.get_THROTTLE,"ax",%progbits
 118              		.align	2
 119              		.global	get_THROTTLE
 120              		.thumb
 121              		.thumb_func
 122              		.type	get_THROTTLE, %function
 123              	get_THROTTLE:
 124              	.LFB66:
  70:can_manager.c **** 
  71:can_manager.c **** 
  72:can_manager.c **** //returns THROTTLE
  73:can_manager.c **** uint8_t get_THROTTLE()
  74:can_manager.c **** {
 125              		.loc 1 74 0
 126              		.cfi_startproc
 127              		@ args = 0, pretend = 0, frame = 0
 128              		@ frame_needed = 0, uses_anonymous_args = 0
 129              		@ link register save eliminated.
  75:can_manager.c ****     return THROTTLE;
 130              		.loc 1 75 0
 131 0000 014B     		ldr	r3, .L11
 132 0002 9878     		ldrb	r0, [r3, #2]	@ zero_extendqisi2
  76:can_manager.c **** }
 133              		.loc 1 76 0
 134 0004 7047     		bx	lr
 135              	.L12:
 136 0006 00BF     		.align	2
 137              	.L11:
 138 0008 00000000 		.word	.LANCHOR0
 139              		.cfi_endproc
 140              	.LFE66:
 141              		.size	get_THROTTLE, .-get_THROTTLE
 142              		.section	.text.get_STATE,"ax",%progbits
 143              		.align	2
 144              		.global	get_STATE
 145              		.thumb
 146              		.thumb_func
 147              		.type	get_STATE, %function
 148              	get_STATE:
 149              	.LFB67:
  77:can_manager.c **** //returns state
  78:can_manager.c **** uint8_t get_STATE()
  79:can_manager.c **** {
ARM GAS  C:\Users\JUSTIN~1\AppData\Local\Temp\cc2B6kPx.s 			page 5


 150              		.loc 1 79 0
 151              		.cfi_startproc
 152              		@ args = 0, pretend = 0, frame = 0
 153              		@ frame_needed = 0, uses_anonymous_args = 0
 154              		@ link register save eliminated.
  80:can_manager.c ****     return STATE;
 155              		.loc 1 80 0
 156 0000 014B     		ldr	r3, .L14
 157 0002 D878     		ldrb	r0, [r3, #3]	@ zero_extendqisi2
  81:can_manager.c **** }
 158              		.loc 1 81 0
 159 0004 7047     		bx	lr
 160              	.L15:
 161 0006 00BF     		.align	2
 162              	.L14:
 163 0008 00000000 		.word	.LANCHOR0
 164              		.cfi_endproc
 165              	.LFE67:
 166              		.size	get_STATE, .-get_STATE
 167              		.section	.text.get_POST_FAULT_LO_1,"ax",%progbits
 168              		.align	2
 169              		.global	get_POST_FAULT_LO_1
 170              		.thumb
 171              		.thumb_func
 172              		.type	get_POST_FAULT_LO_1, %function
 173              	get_POST_FAULT_LO_1:
 174              	.LFB68:
  82:can_manager.c **** uint8_t get_POST_FAULT_LO_1()
  83:can_manager.c **** {
 175              		.loc 1 83 0
 176              		.cfi_startproc
 177              		@ args = 0, pretend = 0, frame = 0
 178              		@ frame_needed = 0, uses_anonymous_args = 0
 179              		@ link register save eliminated.
  84:can_manager.c ****     return POST_FAULT_LO_1;
 180              		.loc 1 84 0
 181 0000 014B     		ldr	r3, .L17
 182 0002 1879     		ldrb	r0, [r3, #4]	@ zero_extendqisi2
  85:can_manager.c **** }
 183              		.loc 1 85 0
 184 0004 7047     		bx	lr
 185              	.L18:
 186 0006 00BF     		.align	2
 187              	.L17:
 188 0008 00000000 		.word	.LANCHOR0
 189              		.cfi_endproc
 190              	.LFE68:
 191              		.size	get_POST_FAULT_LO_1, .-get_POST_FAULT_LO_1
 192              		.section	.text.get_POST_FAULT_LO_2,"ax",%progbits
 193              		.align	2
 194              		.global	get_POST_FAULT_LO_2
 195              		.thumb
 196              		.thumb_func
 197              		.type	get_POST_FAULT_LO_2, %function
 198              	get_POST_FAULT_LO_2:
 199              	.LFB69:
  86:can_manager.c **** uint8_t get_POST_FAULT_LO_2()
ARM GAS  C:\Users\JUSTIN~1\AppData\Local\Temp\cc2B6kPx.s 			page 6


  87:can_manager.c **** {
 200              		.loc 1 87 0
 201              		.cfi_startproc
 202              		@ args = 0, pretend = 0, frame = 0
 203              		@ frame_needed = 0, uses_anonymous_args = 0
 204              		@ link register save eliminated.
  88:can_manager.c ****     return POST_FAULT_LO_2;
 205              		.loc 1 88 0
 206 0000 014B     		ldr	r3, .L20
 207 0002 5879     		ldrb	r0, [r3, #5]	@ zero_extendqisi2
  89:can_manager.c **** }
 208              		.loc 1 89 0
 209 0004 7047     		bx	lr
 210              	.L21:
 211 0006 00BF     		.align	2
 212              	.L20:
 213 0008 00000000 		.word	.LANCHOR0
 214              		.cfi_endproc
 215              	.LFE69:
 216              		.size	get_POST_FAULT_LO_2, .-get_POST_FAULT_LO_2
 217              		.section	.text.get_POST_FAULT_HI_1,"ax",%progbits
 218              		.align	2
 219              		.global	get_POST_FAULT_HI_1
 220              		.thumb
 221              		.thumb_func
 222              		.type	get_POST_FAULT_HI_1, %function
 223              	get_POST_FAULT_HI_1:
 224              	.LFB70:
  90:can_manager.c **** uint8_t get_POST_FAULT_HI_1()
  91:can_manager.c **** {
 225              		.loc 1 91 0
 226              		.cfi_startproc
 227              		@ args = 0, pretend = 0, frame = 0
 228              		@ frame_needed = 0, uses_anonymous_args = 0
 229              		@ link register save eliminated.
  92:can_manager.c ****     return POST_FAULT_HI_1;
 230              		.loc 1 92 0
 231 0000 014B     		ldr	r3, .L23
 232 0002 9879     		ldrb	r0, [r3, #6]	@ zero_extendqisi2
  93:can_manager.c **** }
 233              		.loc 1 93 0
 234 0004 7047     		bx	lr
 235              	.L24:
 236 0006 00BF     		.align	2
 237              	.L23:
 238 0008 00000000 		.word	.LANCHOR0
 239              		.cfi_endproc
 240              	.LFE70:
 241              		.size	get_POST_FAULT_HI_1, .-get_POST_FAULT_HI_1
 242              		.section	.text.get_POST_FAULT_HI_2,"ax",%progbits
 243              		.align	2
 244              		.global	get_POST_FAULT_HI_2
 245              		.thumb
 246              		.thumb_func
 247              		.type	get_POST_FAULT_HI_2, %function
 248              	get_POST_FAULT_HI_2:
 249              	.LFB71:
ARM GAS  C:\Users\JUSTIN~1\AppData\Local\Temp\cc2B6kPx.s 			page 7


  94:can_manager.c **** uint8_t get_POST_FAULT_HI_2()
  95:can_manager.c **** {
 250              		.loc 1 95 0
 251              		.cfi_startproc
 252              		@ args = 0, pretend = 0, frame = 0
 253              		@ frame_needed = 0, uses_anonymous_args = 0
 254              		@ link register save eliminated.
  96:can_manager.c ****     return POST_FAULT_HI_2;
 255              		.loc 1 96 0
 256 0000 014B     		ldr	r3, .L26
 257 0002 D879     		ldrb	r0, [r3, #7]	@ zero_extendqisi2
  97:can_manager.c **** }
 258              		.loc 1 97 0
 259 0004 7047     		bx	lr
 260              	.L27:
 261 0006 00BF     		.align	2
 262              	.L26:
 263 0008 00000000 		.word	.LANCHOR0
 264              		.cfi_endproc
 265              	.LFE71:
 266              		.size	get_POST_FAULT_HI_2, .-get_POST_FAULT_HI_2
 267              		.section	.text.get_RUN_FAULT_LO_1,"ax",%progbits
 268              		.align	2
 269              		.global	get_RUN_FAULT_LO_1
 270              		.thumb
 271              		.thumb_func
 272              		.type	get_RUN_FAULT_LO_1, %function
 273              	get_RUN_FAULT_LO_1:
 274              	.LFB72:
  98:can_manager.c **** uint8_t get_RUN_FAULT_LO_1()
  99:can_manager.c **** {
 275              		.loc 1 99 0
 276              		.cfi_startproc
 277              		@ args = 0, pretend = 0, frame = 0
 278              		@ frame_needed = 0, uses_anonymous_args = 0
 279              		@ link register save eliminated.
 100:can_manager.c ****     return RUN_FAULT_LO_1;
 280              		.loc 1 100 0
 281 0000 014B     		ldr	r3, .L29
 282 0002 187A     		ldrb	r0, [r3, #8]	@ zero_extendqisi2
 101:can_manager.c **** }
 283              		.loc 1 101 0
 284 0004 7047     		bx	lr
 285              	.L30:
 286 0006 00BF     		.align	2
 287              	.L29:
 288 0008 00000000 		.word	.LANCHOR0
 289              		.cfi_endproc
 290              	.LFE72:
 291              		.size	get_RUN_FAULT_LO_1, .-get_RUN_FAULT_LO_1
 292              		.section	.text.get_RUN_FAULT_LO_2,"ax",%progbits
 293              		.align	2
 294              		.global	get_RUN_FAULT_LO_2
 295              		.thumb
 296              		.thumb_func
 297              		.type	get_RUN_FAULT_LO_2, %function
 298              	get_RUN_FAULT_LO_2:
ARM GAS  C:\Users\JUSTIN~1\AppData\Local\Temp\cc2B6kPx.s 			page 8


 299              	.LFB73:
 102:can_manager.c **** uint8_t get_RUN_FAULT_LO_2()
 103:can_manager.c **** {
 300              		.loc 1 103 0
 301              		.cfi_startproc
 302              		@ args = 0, pretend = 0, frame = 0
 303              		@ frame_needed = 0, uses_anonymous_args = 0
 304              		@ link register save eliminated.
 104:can_manager.c ****     return RUN_FAULT_LO_2;
 305              		.loc 1 104 0
 306 0000 014B     		ldr	r3, .L32
 307 0002 587A     		ldrb	r0, [r3, #9]	@ zero_extendqisi2
 105:can_manager.c **** }
 308              		.loc 1 105 0
 309 0004 7047     		bx	lr
 310              	.L33:
 311 0006 00BF     		.align	2
 312              	.L32:
 313 0008 00000000 		.word	.LANCHOR0
 314              		.cfi_endproc
 315              	.LFE73:
 316              		.size	get_RUN_FAULT_LO_2, .-get_RUN_FAULT_LO_2
 317              		.section	.text.get_RUN_FAULT_HI_1,"ax",%progbits
 318              		.align	2
 319              		.global	get_RUN_FAULT_HI_1
 320              		.thumb
 321              		.thumb_func
 322              		.type	get_RUN_FAULT_HI_1, %function
 323              	get_RUN_FAULT_HI_1:
 324              	.LFB74:
 106:can_manager.c **** uint8_t get_RUN_FAULT_HI_1()
 107:can_manager.c **** {
 325              		.loc 1 107 0
 326              		.cfi_startproc
 327              		@ args = 0, pretend = 0, frame = 0
 328              		@ frame_needed = 0, uses_anonymous_args = 0
 329              		@ link register save eliminated.
 108:can_manager.c ****     return RUN_FAULT_HI_1;
 330              		.loc 1 108 0
 331 0000 014B     		ldr	r3, .L35
 332 0002 987A     		ldrb	r0, [r3, #10]	@ zero_extendqisi2
 109:can_manager.c **** }
 333              		.loc 1 109 0
 334 0004 7047     		bx	lr
 335              	.L36:
 336 0006 00BF     		.align	2
 337              	.L35:
 338 0008 00000000 		.word	.LANCHOR0
 339              		.cfi_endproc
 340              	.LFE74:
 341              		.size	get_RUN_FAULT_HI_1, .-get_RUN_FAULT_HI_1
 342              		.section	.text.get_RUN_FAULT_HI_2,"ax",%progbits
 343              		.align	2
 344              		.global	get_RUN_FAULT_HI_2
 345              		.thumb
 346              		.thumb_func
 347              		.type	get_RUN_FAULT_HI_2, %function
ARM GAS  C:\Users\JUSTIN~1\AppData\Local\Temp\cc2B6kPx.s 			page 9


 348              	get_RUN_FAULT_HI_2:
 349              	.LFB75:
 110:can_manager.c **** uint8_t get_RUN_FAULT_HI_2()
 111:can_manager.c **** {
 350              		.loc 1 111 0
 351              		.cfi_startproc
 352              		@ args = 0, pretend = 0, frame = 0
 353              		@ frame_needed = 0, uses_anonymous_args = 0
 354              		@ link register save eliminated.
 112:can_manager.c ****     return RUN_FAULT_HI_2;
 355              		.loc 1 112 0
 356 0000 014B     		ldr	r3, .L38
 357 0002 D87A     		ldrb	r0, [r3, #11]	@ zero_extendqisi2
 113:can_manager.c **** }
 358              		.loc 1 113 0
 359 0004 7047     		bx	lr
 360              	.L39:
 361 0006 00BF     		.align	2
 362              	.L38:
 363 0008 00000000 		.word	.LANCHOR0
 364              		.cfi_endproc
 365              	.LFE75:
 366              		.size	get_RUN_FAULT_HI_2, .-get_RUN_FAULT_HI_2
 367              		.section	.text.get_RUN_FAULT_SUM,"ax",%progbits
 368              		.align	2
 369              		.global	get_RUN_FAULT_SUM
 370              		.thumb
 371              		.thumb_func
 372              		.type	get_RUN_FAULT_SUM, %function
 373              	get_RUN_FAULT_SUM:
 374              	.LFB76:
 114:can_manager.c **** uint8_t get_RUN_FAULT_SUM()
 115:can_manager.c **** {
 375              		.loc 1 115 0
 376              		.cfi_startproc
 377              		@ args = 0, pretend = 0, frame = 0
 378              		@ frame_needed = 0, uses_anonymous_args = 0
 379              		@ link register save eliminated.
 116:can_manager.c ****     return RUN_FAULT_LO_1+RUN_FAULT_LO_2+RUN_FAULT_HI_1+RUN_FAULT_HI_2;
 380              		.loc 1 116 0
 381 0000 044A     		ldr	r2, .L41
 382 0002 137A     		ldrb	r3, [r2, #8]	@ zero_extendqisi2
 383 0004 517A     		ldrb	r1, [r2, #9]	@ zero_extendqisi2
 384 0006 907A     		ldrb	r0, [r2, #10]	@ zero_extendqisi2
 385 0008 D27A     		ldrb	r2, [r2, #11]	@ zero_extendqisi2
 386 000a 0B44     		add	r3, r3, r1
 387 000c 1844     		add	r0, r0, r3
 388 000e 1044     		add	r0, r0, r2
 117:can_manager.c **** }
 389              		.loc 1 117 0
 390 0010 C0B2     		uxtb	r0, r0
 391 0012 7047     		bx	lr
 392              	.L42:
 393              		.align	2
 394              	.L41:
 395 0014 00000000 		.word	.LANCHOR0
 396              		.cfi_endproc
ARM GAS  C:\Users\JUSTIN~1\AppData\Local\Temp\cc2B6kPx.s 			page 10


 397              	.LFE76:
 398              		.size	get_RUN_FAULT_SUM, .-get_RUN_FAULT_SUM
 399              		.section	.text.can_receive,"ax",%progbits
 400              		.align	2
 401              		.global	can_receive
 402              		.thumb
 403              		.thumb_func
 404              		.type	can_receive, %function
 405              	can_receive:
 406              	.LFB77:
 118:can_manager.c **** 
 119:can_manager.c **** // called from CAN_TX_RX_func.c in the generic RX func
 120:can_manager.c **** // tldr: part of an interrupt service routine
 121:can_manager.c **** void can_receive(uint8_t *msg, int ID)
 122:can_manager.c **** {
 407              		.loc 1 122 0
 408              		.cfi_startproc
 409              		@ args = 0, pretend = 0, frame = 0
 410              		@ frame_needed = 0, uses_anonymous_args = 0
 411              	.LVL6:
 412 0000 38B5     		push	{r3, r4, r5, lr}
 413              		.cfi_def_cfa_offset 16
 414              		.cfi_offset 3, -16
 415              		.cfi_offset 4, -12
 416              		.cfi_offset 5, -8
 417              		.cfi_offset 14, -4
 418 0002 0546     		mov	r5, r0
 419 0004 0C46     		mov	r4, r1
 123:can_manager.c ****     uint8 InterruptState = CyEnterCriticalSection();
 420              		.loc 1 123 0
 421 0006 FFF7FEFF 		bl	CyEnterCriticalSection
 422              	.LVL7:
 124:can_manager.c ****     
 125:can_manager.c ****     switch (ID) 
 423              		.loc 1 125 0
 424 000a 40F26633 		movw	r3, #870
 425 000e 9C42     		cmp	r4, r3
 426 0010 1DD0     		beq	.L45
 427 0012 04DC     		bgt	.L46
 428 0014 AB2C     		cmp	r4, #171
 429 0016 24D0     		beq	.L47
 430 0018 C12C     		cmp	r4, #193
 431 001a 1CD0     		beq	.L48
 432 001c 32E0     		b	.L44
 433              	.L46:
 434 001e 40F26643 		movw	r3, #1126
 435 0022 9C42     		cmp	r4, r3
 436 0024 09D0     		beq	.L49
 437 0026 40F26673 		movw	r3, #1894
 438 002a 9C42     		cmp	r4, r3
 439 002c 2AD1     		bne	.L44
 126:can_manager.c ****     {
 127:can_manager.c ****         case TORQUE_REQUEST_COMMAND:
 128:can_manager.c ****             HV_REQUEST_TR = msg[CAN_DATA_BYTE_1];
 440              		.loc 1 128 0
 441 002e EA78     		ldrb	r2, [r5, #3]	@ zero_extendqisi2
 442 0030 164B     		ldr	r3, .L52
ARM GAS  C:\Users\JUSTIN~1\AppData\Local\Temp\cc2B6kPx.s 			page 11


 443 0032 1A70     		strb	r2, [r3]
 129:can_manager.c ****             VEHICLE_STATE = msg[CAN_DATA_BYTE_5];
 444              		.loc 1 129 0
 445 0034 EA79     		ldrb	r2, [r5, #7]	@ zero_extendqisi2
 446 0036 5A70     		strb	r2, [r3, #1]
 130:can_manager.c ****             break;
 447              		.loc 1 130 0
 448 0038 24E0     		b	.L44
 449              	.L49:
 131:can_manager.c ****         case MC_DEBUG:
 132:can_manager.c ****             THROTTLE = msg[CAN_DATA_BYTE_7];
 450              		.loc 1 132 0
 451 003a 6A79     		ldrb	r2, [r5, #5]	@ zero_extendqisi2
 452 003c 134B     		ldr	r3, .L52
 453 003e 9A70     		strb	r2, [r3, #2]
 133:can_manager.c ****             STATE = msg[CAN_DATA_BYTE_3];
 454              		.loc 1 133 0
 455 0040 6A78     		ldrb	r2, [r5, #1]	@ zero_extendqisi2
 456 0042 DA70     		strb	r2, [r3, #3]
 134:can_manager.c ****             SET_INTERLOCK = msg[CAN_DATA_BYTE_1];
 457              		.loc 1 134 0
 458 0044 EA78     		ldrb	r2, [r5, #3]	@ zero_extendqisi2
 459 0046 1A73     		strb	r2, [r3, #12]
 135:can_manager.c ****             HV_REQUEST_MC = msg[CAN_DATA_BYTE_2];
 460              		.loc 1 135 0
 461 0048 AA78     		ldrb	r2, [r5, #2]	@ zero_extendqisi2
 462 004a 5A73     		strb	r2, [r3, #13]
 136:can_manager.c ****             break;
 463              		.loc 1 136 0
 464 004c 1AE0     		b	.L44
 465              	.L45:
 137:can_manager.c ****         case MC_ESTOP:
 138:can_manager.c ****             ESTOP_MC = msg[CAN_DATA_BYTE_1];
 466              		.loc 1 138 0
 467 004e EA78     		ldrb	r2, [r5, #3]	@ zero_extendqisi2
 468 0050 0E4B     		ldr	r3, .L52
 469 0052 9A73     		strb	r2, [r3, #14]
 139:can_manager.c ****             break;
 470              		.loc 1 139 0
 471 0054 16E0     		b	.L44
 472              	.L48:
 140:can_manager.c ****         case BSPD_FLAGS:
 141:can_manager.c ****             THROTTLE_HIGH = msg[CAN_DATA_BYTE_2];
 473              		.loc 1 141 0
 474 0056 AA78     		ldrb	r2, [r5, #2]	@ zero_extendqisi2
 475 0058 0C4B     		ldr	r3, .L52
 476 005a DA73     		strb	r2, [r3, #15]
 142:can_manager.c ****             THROTTLE_LOW = msg[CAN_DATA_BYTE_3];
 477              		.loc 1 142 0
 478 005c 6A78     		ldrb	r2, [r5, #1]	@ zero_extendqisi2
 479 005e 1A74     		strb	r2, [r3, #16]
 143:can_manager.c ****             break;
 480              		.loc 1 143 0
 481 0060 10E0     		b	.L44
 482              	.L47:
 144:can_manager.c ****         case MC_FAULT:
 145:can_manager.c ****             POST_FAULT_LO_1 = msg[CAN_DATA_BYTE_1];
ARM GAS  C:\Users\JUSTIN~1\AppData\Local\Temp\cc2B6kPx.s 			page 12


 483              		.loc 1 145 0
 484 0062 EA78     		ldrb	r2, [r5, #3]	@ zero_extendqisi2
 485 0064 094B     		ldr	r3, .L52
 486 0066 1A71     		strb	r2, [r3, #4]
 146:can_manager.c ****             POST_FAULT_LO_2 = msg[CAN_DATA_BYTE_2];
 487              		.loc 1 146 0
 488 0068 AA78     		ldrb	r2, [r5, #2]	@ zero_extendqisi2
 489 006a 5A71     		strb	r2, [r3, #5]
 147:can_manager.c ****             POST_FAULT_HI_1 = msg[CAN_DATA_BYTE_3];
 490              		.loc 1 147 0
 491 006c 6A78     		ldrb	r2, [r5, #1]	@ zero_extendqisi2
 492 006e 9A71     		strb	r2, [r3, #6]
 148:can_manager.c ****             POST_FAULT_HI_2 = msg[CAN_DATA_BYTE_4];
 493              		.loc 1 148 0
 494 0070 2A78     		ldrb	r2, [r5]	@ zero_extendqisi2
 495 0072 DA71     		strb	r2, [r3, #7]
 149:can_manager.c ****             RUN_FAULT_LO_1 = msg[CAN_DATA_BYTE_5];
 496              		.loc 1 149 0
 497 0074 EA79     		ldrb	r2, [r5, #7]	@ zero_extendqisi2
 498 0076 1A72     		strb	r2, [r3, #8]
 150:can_manager.c ****             RUN_FAULT_LO_2 = msg[CAN_DATA_BYTE_6];
 499              		.loc 1 150 0
 500 0078 AA79     		ldrb	r2, [r5, #6]	@ zero_extendqisi2
 501 007a 5A72     		strb	r2, [r3, #9]
 151:can_manager.c ****             RUN_FAULT_HI_1 = msg[CAN_DATA_BYTE_7];
 502              		.loc 1 151 0
 503 007c 6A79     		ldrb	r2, [r5, #5]	@ zero_extendqisi2
 504 007e 9A72     		strb	r2, [r3, #10]
 152:can_manager.c ****             RUN_FAULT_HI_2 = msg[CAN_DATA_BYTE_8];
 505              		.loc 1 152 0
 506 0080 2A79     		ldrb	r2, [r5, #4]	@ zero_extendqisi2
 507 0082 DA72     		strb	r2, [r3, #11]
 508              	.L44:
 153:can_manager.c ****     }
 154:can_manager.c ****     
 155:can_manager.c ****     CyExitCriticalSection(InterruptState);
 509              		.loc 1 155 0
 510 0084 FFF7FEFF 		bl	CyExitCriticalSection
 511              	.LVL8:
 512 0088 38BD     		pop	{r3, r4, r5, pc}
 513              	.LVL9:
 514              	.L53:
 515 008a 00BF     		.align	2
 516              	.L52:
 517 008c 00000000 		.word	.LANCHOR0
 518              		.cfi_endproc
 519              	.LFE77:
 520              		.size	can_receive, .-can_receive
 521              		.section	.text.get_THROTTLE_HIGH,"ax",%progbits
 522              		.align	2
 523              		.global	get_THROTTLE_HIGH
 524              		.thumb
 525              		.thumb_func
 526              		.type	get_THROTTLE_HIGH, %function
 527              	get_THROTTLE_HIGH:
 528              	.LFB78:
 156:can_manager.c **** }
ARM GAS  C:\Users\JUSTIN~1\AppData\Local\Temp\cc2B6kPx.s 			page 13


 157:can_manager.c **** //returns THROTTLE_HIGH
 158:can_manager.c **** uint8_t get_THROTTLE_HIGH()
 159:can_manager.c **** {
 529              		.loc 1 159 0
 530              		.cfi_startproc
 531              		@ args = 0, pretend = 0, frame = 0
 532              		@ frame_needed = 0, uses_anonymous_args = 0
 533              		@ link register save eliminated.
 160:can_manager.c ****     return THROTTLE_HIGH;
 534              		.loc 1 160 0
 535 0000 014B     		ldr	r3, .L55
 536 0002 D87B     		ldrb	r0, [r3, #15]	@ zero_extendqisi2
 161:can_manager.c **** }
 537              		.loc 1 161 0
 538 0004 7047     		bx	lr
 539              	.L56:
 540 0006 00BF     		.align	2
 541              	.L55:
 542 0008 00000000 		.word	.LANCHOR0
 543              		.cfi_endproc
 544              	.LFE78:
 545              		.size	get_THROTTLE_HIGH, .-get_THROTTLE_HIGH
 546              		.section	.text.get_THROTTLE_LOW,"ax",%progbits
 547              		.align	2
 548              		.global	get_THROTTLE_LOW
 549              		.thumb
 550              		.thumb_func
 551              		.type	get_THROTTLE_LOW, %function
 552              	get_THROTTLE_LOW:
 553              	.LFB79:
 162:can_manager.c **** //returns THROTTLE_LOW
 163:can_manager.c **** uint8_t get_THROTTLE_LOW()
 164:can_manager.c **** {
 554              		.loc 1 164 0
 555              		.cfi_startproc
 556              		@ args = 0, pretend = 0, frame = 0
 557              		@ frame_needed = 0, uses_anonymous_args = 0
 558              		@ link register save eliminated.
 165:can_manager.c ****     return THROTTLE_LOW;
 559              		.loc 1 165 0
 560 0000 014B     		ldr	r3, .L58
 561 0002 187C     		ldrb	r0, [r3, #16]	@ zero_extendqisi2
 166:can_manager.c **** }
 562              		.loc 1 166 0
 563 0004 7047     		bx	lr
 564              	.L59:
 565 0006 00BF     		.align	2
 566              	.L58:
 567 0008 00000000 		.word	.LANCHOR0
 568              		.cfi_endproc
 569              	.LFE79:
 570              		.size	get_THROTTLE_LOW, .-get_THROTTLE_LOW
 571              		.section	.text.can_test_send,"ax",%progbits
 572              		.align	2
 573              		.global	can_test_send
 574              		.thumb
 575              		.thumb_func
ARM GAS  C:\Users\JUSTIN~1\AppData\Local\Temp\cc2B6kPx.s 			page 14


 576              		.type	can_test_send, %function
 577              	can_test_send:
 578              	.LFB80:
 167:can_manager.c **** void can_test_send()
 168:can_manager.c **** {
 579              		.loc 1 168 0
 580              		.cfi_startproc
 581              		@ args = 0, pretend = 0, frame = 16
 582              		@ frame_needed = 0, uses_anonymous_args = 0
 583 0000 00B5     		push	{lr}
 584              		.cfi_def_cfa_offset 4
 585              		.cfi_offset 14, -4
 586 0002 85B0     		sub	sp, sp, #20
 587              		.cfi_def_cfa_offset 24
 169:can_manager.c ****     //CAN_1_DATA_BYTES_MSG msg;
 170:can_manager.c ****     CAN_TX_MSG HeartB;
 171:can_manager.c ****     
 172:can_manager.c ****     HeartB.id = 0x300;
 588              		.loc 1 172 0
 589 0004 4FF44073 		mov	r3, #768
 590 0008 0193     		str	r3, [sp, #4]
 173:can_manager.c ****     HeartB.rtr = 0;
 591              		.loc 1 173 0
 592 000a 0022     		movs	r2, #0
 593 000c 8DF80820 		strb	r2, [sp, #8]
 174:can_manager.c ****     HeartB.ide = 0;
 594              		.loc 1 174 0
 595 0010 8DF80920 		strb	r2, [sp, #9]
 175:can_manager.c ****     HeartB.dlc = 1;
 596              		.loc 1 175 0
 597 0014 0123     		movs	r3, #1
 598 0016 8DF80A30 		strb	r3, [sp, #10]
 176:can_manager.c ****     
 177:can_manager.c ****     HeartB.irq = 0;
 599              		.loc 1 177 0
 600 001a 8DF80B20 		strb	r2, [sp, #11]
 178:can_manager.c ****     
 179:can_manager.c ****     HeartB.msg->byte[0] = (uint8) 1;
 601              		.loc 1 179 0
 602 001e 039A     		ldr	r2, [sp, #12]
 603 0020 1370     		strb	r3, [r2]
 180:can_manager.c ****     HeartB.msg->byte[1] = (uint8) 1;
 604              		.loc 1 180 0
 605 0022 039A     		ldr	r2, [sp, #12]
 606 0024 5370     		strb	r3, [r2, #1]
 181:can_manager.c ****     HeartB.msg->byte[2] = (uint8) 1;
 607              		.loc 1 181 0
 608 0026 039A     		ldr	r2, [sp, #12]
 609 0028 9370     		strb	r3, [r2, #2]
 182:can_manager.c ****     HeartB.msg->byte[3] = (uint8) 1;
 610              		.loc 1 182 0
 611 002a 039A     		ldr	r2, [sp, #12]
 612 002c D370     		strb	r3, [r2, #3]
 183:can_manager.c ****     HeartB.msg->byte[4] = (uint8) 1;
 613              		.loc 1 183 0
 614 002e 039A     		ldr	r2, [sp, #12]
 615 0030 1371     		strb	r3, [r2, #4]
ARM GAS  C:\Users\JUSTIN~1\AppData\Local\Temp\cc2B6kPx.s 			page 15


 184:can_manager.c ****     HeartB.msg->byte[5] = (uint8) 1;
 616              		.loc 1 184 0
 617 0032 039A     		ldr	r2, [sp, #12]
 618 0034 5371     		strb	r3, [r2, #5]
 185:can_manager.c ****     HeartB.msg->byte[6] = (uint8) 1;
 619              		.loc 1 185 0
 620 0036 039A     		ldr	r2, [sp, #12]
 621 0038 9371     		strb	r3, [r2, #6]
 186:can_manager.c ****     HeartB.msg->byte[7] = (uint8) 1;
 622              		.loc 1 186 0
 623 003a 039A     		ldr	r2, [sp, #12]
 624 003c D371     		strb	r3, [r2, #7]
 187:can_manager.c ****     
 188:can_manager.c ****     CAN_SendMsg(&HeartB);
 625              		.loc 1 188 0
 626 003e 01A8     		add	r0, sp, #4
 627 0040 FFF7FEFF 		bl	CAN_SendMsg
 628              	.LVL10:
 189:can_manager.c **** }
 629              		.loc 1 189 0
 630 0044 05B0     		add	sp, sp, #20
 631              		.cfi_def_cfa_offset 4
 632              		@ sp needed
 633 0046 5DF804FB 		ldr	pc, [sp], #4
 634              		.cfi_endproc
 635              	.LFE80:
 636              		.size	can_test_send, .-can_test_send
 637 004a 00BF     		.section	.text.can_send,"ax",%progbits
 638              		.align	2
 639              		.global	can_send
 640              		.thumb
 641              		.thumb_func
 642              		.type	can_send, %function
 643              	can_send:
 644              	.LFB81:
 190:can_manager.c **** 
 191:can_manager.c **** void can_send(uint8_t data[8], uint32_t ID)
 192:can_manager.c **** {
 645              		.loc 1 192 0
 646              		.cfi_startproc
 647              		@ args = 0, pretend = 0, frame = 24
 648              		@ frame_needed = 0, uses_anonymous_args = 0
 649              	.LVL11:
 650 0000 00B5     		push	{lr}
 651              		.cfi_def_cfa_offset 4
 652              		.cfi_offset 14, -4
 653 0002 87B0     		sub	sp, sp, #28
 654              		.cfi_def_cfa_offset 32
 193:can_manager.c ****     uint8_t i;
 194:can_manager.c **** 	CAN_TX_MSG message;
 195:can_manager.c **** 	CAN_DATA_BYTES_MSG payload;
 196:can_manager.c **** 	message.id = ID; 
 655              		.loc 1 196 0
 656 0004 0391     		str	r1, [sp, #12]
 197:can_manager.c **** 	message.rtr = 0;
 657              		.loc 1 197 0
 658 0006 0023     		movs	r3, #0
ARM GAS  C:\Users\JUSTIN~1\AppData\Local\Temp\cc2B6kPx.s 			page 16


 659 0008 8DF81030 		strb	r3, [sp, #16]
 198:can_manager.c **** 	message.ide = 0;
 660              		.loc 1 198 0
 661 000c 8DF81130 		strb	r3, [sp, #17]
 199:can_manager.c **** 	message.dlc = 0x08;
 662              		.loc 1 199 0
 663 0010 0822     		movs	r2, #8
 664 0012 8DF81220 		strb	r2, [sp, #18]
 200:can_manager.c **** 	message.irq = 0;
 665              		.loc 1 200 0
 666 0016 8DF81330 		strb	r3, [sp, #19]
 201:can_manager.c **** 	message.msg = &payload;
 667              		.loc 1 201 0
 668 001a 01AA     		add	r2, sp, #4
 669 001c 0592     		str	r2, [sp, #20]
 670              	.LVL12:
 202:can_manager.c **** 	for(i=0;i<8;i++)
 671              		.loc 1 202 0
 672 001e 06E0     		b	.L63
 673              	.LVL13:
 674              	.L64:
 203:can_manager.c **** 		payload.byte[i] = data[i];
 675              		.loc 1 203 0 discriminator 3
 676 0020 C15C     		ldrb	r1, [r0, r3]	@ zero_extendqisi2
 677 0022 06AA     		add	r2, sp, #24
 678 0024 1A44     		add	r2, r2, r3
 679 0026 02F8141C 		strb	r1, [r2, #-20]
 202:can_manager.c **** 	for(i=0;i<8;i++)
 680              		.loc 1 202 0 discriminator 3
 681 002a 0133     		adds	r3, r3, #1
 682              	.LVL14:
 683 002c DBB2     		uxtb	r3, r3
 684              	.LVL15:
 685              	.L63:
 202:can_manager.c **** 	for(i=0;i<8;i++)
 686              		.loc 1 202 0 is_stmt 0 discriminator 1
 687 002e 072B     		cmp	r3, #7
 688 0030 F6D9     		bls	.L64
 204:can_manager.c **** 	CAN_SendMsg(&message); 
 689              		.loc 1 204 0 is_stmt 1
 690 0032 03A8     		add	r0, sp, #12
 691              	.LVL16:
 692 0034 FFF7FEFF 		bl	CAN_SendMsg
 693              	.LVL17:
 205:can_manager.c **** }
 694              		.loc 1 205 0
 695 0038 07B0     		add	sp, sp, #28
 696              		.cfi_def_cfa_offset 4
 697              		@ sp needed
 698 003a 5DF804FB 		ldr	pc, [sp], #4
 699              		.cfi_endproc
 700              	.LFE81:
 701              		.size	can_send, .-can_send
 702 003e 00BF     		.section	.text.can_send_cmd,"ax",%progbits
 703              		.align	2
 704              		.global	can_send_cmd
 705              		.thumb
ARM GAS  C:\Users\JUSTIN~1\AppData\Local\Temp\cc2B6kPx.s 			page 17


 706              		.thumb_func
 707              		.type	can_send_cmd, %function
 708              	can_send_cmd:
 709              	.LFB82:
 206:can_manager.c **** 
 207:can_manager.c **** void can_send_cmd(
 208:can_manager.c ****     uint8_t SetInterlock,
 209:can_manager.c ****     uint16_t Throttle_High,
 210:can_manager.c ****     uint16_t Throttle_Low,
 211:can_manager.c ****     uint8_t E_Stop_Check
 212:can_manager.c **** )
 213:can_manager.c **** {
 710              		.loc 1 213 0
 711              		.cfi_startproc
 712              		@ args = 0, pretend = 0, frame = 8
 713              		@ frame_needed = 0, uses_anonymous_args = 0
 714              	.LVL18:
 715 0000 00B5     		push	{lr}
 716              		.cfi_def_cfa_offset 4
 717              		.cfi_offset 14, -4
 718 0002 83B0     		sub	sp, sp, #12
 719              		.cfi_def_cfa_offset 16
 214:can_manager.c ****     //max and min voltage means the voltage of single cell
 215:can_manager.c ****         
 216:can_manager.c ****         uint8_t data[8];
 217:can_manager.c ****         
 218:can_manager.c ****         data[0] = SetInterlock;
 720              		.loc 1 218 0
 721 0004 8DF80000 		strb	r0, [sp]
 219:can_manager.c ****         
 220:can_manager.c ****         data[1] = Throttle_High;
 722              		.loc 1 220 0
 723 0008 8DF80110 		strb	r1, [sp, #1]
 221:can_manager.c ****         data[2] = Throttle_Low;
 724              		.loc 1 221 0
 725 000c 8DF80220 		strb	r2, [sp, #2]
 222:can_manager.c ****         
 223:can_manager.c ****         data[3] = 0;
 726              		.loc 1 223 0
 727 0010 0022     		movs	r2, #0
 728              	.LVL19:
 729 0012 8DF80320 		strb	r2, [sp, #3]
 224:can_manager.c ****         data[4] = E_Stop_Check;
 730              		.loc 1 224 0
 731 0016 8DF80430 		strb	r3, [sp, #4]
 225:can_manager.c ****         
 226:can_manager.c ****         data[5] = 0;
 732              		.loc 1 226 0
 733 001a 8DF80520 		strb	r2, [sp, #5]
 227:can_manager.c ****         data[6] = 0;
 734              		.loc 1 227 0
 735 001e 8DF80620 		strb	r2, [sp, #6]
 228:can_manager.c ****         data[7] = 0;
 736              		.loc 1 228 0
 737 0022 8DF80720 		strb	r2, [sp, #7]
 229:can_manager.c **** 
 230:can_manager.c ****         can_send(data, 0x763);
ARM GAS  C:\Users\JUSTIN~1\AppData\Local\Temp\cc2B6kPx.s 			page 18


 738              		.loc 1 230 0
 739 0026 40F26371 		movw	r1, #1891
 740              	.LVL20:
 741 002a 6846     		mov	r0, sp
 742              	.LVL21:
 743 002c FFF7FEFF 		bl	can_send
 744              	.LVL22:
 231:can_manager.c ****         CyDelay(1); // Wtf is this shit?
 745              		.loc 1 231 0
 746 0030 0120     		movs	r0, #1
 747 0032 FFF7FEFF 		bl	CyDelay
 748              	.LVL23:
 232:can_manager.c **** 
 233:can_manager.c **** } // can_send_cmd()
 749              		.loc 1 233 0
 750 0036 03B0     		add	sp, sp, #12
 751              		.cfi_def_cfa_offset 4
 752              		@ sp needed
 753 0038 5DF804FB 		ldr	pc, [sp], #4
 754              		.cfi_endproc
 755              	.LFE82:
 756              		.size	can_send_cmd, .-can_send_cmd
 757              		.section	.text.can_send_state_and_throttle,"ax",%progbits
 758              		.align	2
 759              		.global	can_send_state_and_throttle
 760              		.thumb
 761              		.thumb_func
 762              		.type	can_send_state_and_throttle, %function
 763              	can_send_state_and_throttle:
 764              	.LFB83:
 234:can_manager.c **** 
 235:can_manager.c **** void can_send_state_and_throttle(uint8_t state, uint8_t throttle_upper, uint8_t throttle_lower) {
 765              		.loc 1 235 0
 766              		.cfi_startproc
 767              		@ args = 0, pretend = 0, frame = 8
 768              		@ frame_needed = 0, uses_anonymous_args = 0
 769              	.LVL24:
 770 0000 00B5     		push	{lr}
 771              		.cfi_def_cfa_offset 4
 772              		.cfi_offset 14, -4
 773 0002 83B0     		sub	sp, sp, #12
 774              		.cfi_def_cfa_offset 16
 236:can_manager.c ****     uint8_t data[8] = {0};
 775              		.loc 1 236 0
 776 0004 0023     		movs	r3, #0
 777 0006 0093     		str	r3, [sp]
 778 0008 0193     		str	r3, [sp, #4]
 237:can_manager.c ****     
 238:can_manager.c ****     data[5] = throttle_upper;
 779              		.loc 1 238 0
 780 000a 8DF80510 		strb	r1, [sp, #5]
 239:can_manager.c ****     data[6] = throttle_lower;
 781              		.loc 1 239 0
 782 000e 8DF80620 		strb	r2, [sp, #6]
 240:can_manager.c ****     
 241:can_manager.c ****     data[2] = state;
 783              		.loc 1 241 0
ARM GAS  C:\Users\JUSTIN~1\AppData\Local\Temp\cc2B6kPx.s 			page 19


 784 0012 8DF80200 		strb	r0, [sp, #2]
 242:can_manager.c ****     
 243:can_manager.c ****     can_send(data, MC_DEBUG_SEND);
 785              		.loc 1 243 0
 786 0016 40F26341 		movw	r1, #1123
 787              	.LVL25:
 788 001a 6846     		mov	r0, sp
 789              	.LVL26:
 790 001c FFF7FEFF 		bl	can_send
 791              	.LVL27:
 244:can_manager.c **** }
 792              		.loc 1 244 0
 793 0020 03B0     		add	sp, sp, #12
 794              		.cfi_def_cfa_offset 4
 795              		@ sp needed
 796 0022 5DF804FB 		ldr	pc, [sp], #4
 797              		.cfi_endproc
 798              	.LFE83:
 799              		.size	can_send_state_and_throttle, .-can_send_state_and_throttle
 800 0026 00BF     		.section	.text.can_send_ESTOP,"ax",%progbits
 801              		.align	2
 802              		.global	can_send_ESTOP
 803              		.thumb
 804              		.thumb_func
 805              		.type	can_send_ESTOP, %function
 806              	can_send_ESTOP:
 807              	.LFB84:
 245:can_manager.c **** 
 246:can_manager.c **** 
 247:can_manager.c **** void can_send_ESTOP(uint8_t estop) {
 808              		.loc 1 247 0
 809              		.cfi_startproc
 810              		@ args = 0, pretend = 0, frame = 8
 811              		@ frame_needed = 0, uses_anonymous_args = 0
 812              	.LVL28:
 813 0000 00B5     		push	{lr}
 814              		.cfi_def_cfa_offset 4
 815              		.cfi_offset 14, -4
 816 0002 83B0     		sub	sp, sp, #12
 817              		.cfi_def_cfa_offset 16
 248:can_manager.c ****     uint8_t data[8] = {0};
 818              		.loc 1 248 0
 819 0004 0023     		movs	r3, #0
 820 0006 0093     		str	r3, [sp]
 821 0008 0193     		str	r3, [sp, #4]
 249:can_manager.c ****     data[0] = estop;
 822              		.loc 1 249 0
 823 000a 8DF80000 		strb	r0, [sp]
 250:can_manager.c ****     can_send(data, 0x363);
 824              		.loc 1 250 0
 825 000e 40F26331 		movw	r1, #867
 826 0012 6846     		mov	r0, sp
 827              	.LVL29:
 828 0014 FFF7FEFF 		bl	can_send
 829              	.LVL30:
 251:can_manager.c **** }
 830              		.loc 1 251 0
ARM GAS  C:\Users\JUSTIN~1\AppData\Local\Temp\cc2B6kPx.s 			page 20


 831 0018 03B0     		add	sp, sp, #12
 832              		.cfi_def_cfa_offset 4
 833              		@ sp needed
 834 001a 5DF804FB 		ldr	pc, [sp], #4
 835              		.cfi_endproc
 836              	.LFE84:
 837              		.size	can_send_ESTOP, .-can_send_ESTOP
 838 001e 00BF     		.section	.text.close_precharge,"ax",%progbits
 839              		.align	2
 840              		.global	close_precharge
 841              		.thumb
 842              		.thumb_func
 843              		.type	close_precharge, %function
 844              	close_precharge:
 845              	.LFB85:
 252:can_manager.c **** 
 253:can_manager.c **** void close_precharge() {
 846              		.loc 1 253 0
 847              		.cfi_startproc
 848              		@ args = 0, pretend = 0, frame = 0
 849              		@ frame_needed = 0, uses_anonymous_args = 0
 850 0000 08B5     		push	{r3, lr}
 851              		.cfi_def_cfa_offset 8
 852              		.cfi_offset 3, -8
 853              		.cfi_offset 14, -4
 254:can_manager.c ****     AIR_NEG_Write(1);
 854              		.loc 1 254 0
 855 0002 0120     		movs	r0, #1
 856 0004 FFF7FEFF 		bl	AIR_NEG_Write
 857              	.LVL31:
 255:can_manager.c ****     AIR_POS_Write(0);
 858              		.loc 1 255 0
 859 0008 0020     		movs	r0, #0
 860 000a FFF7FEFF 		bl	AIR_POS_Write
 861              	.LVL32:
 256:can_manager.c ****     Precharge_Write(1);
 862              		.loc 1 256 0
 863 000e 0120     		movs	r0, #1
 864 0010 FFF7FEFF 		bl	Precharge_Write
 865              	.LVL33:
 866 0014 08BD     		pop	{r3, pc}
 867              		.cfi_endproc
 868              	.LFE85:
 869              		.size	close_precharge, .-close_precharge
 870 0016 00BF     		.section	.text.open_precharge,"ax",%progbits
 871              		.align	2
 872              		.global	open_precharge
 873              		.thumb
 874              		.thumb_func
 875              		.type	open_precharge, %function
 876              	open_precharge:
 877              	.LFB86:
 257:can_manager.c **** }
 258:can_manager.c **** 
 259:can_manager.c **** void open_precharge()
 260:can_manager.c **** {
 878              		.loc 1 260 0
ARM GAS  C:\Users\JUSTIN~1\AppData\Local\Temp\cc2B6kPx.s 			page 21


 879              		.cfi_startproc
 880              		@ args = 0, pretend = 0, frame = 0
 881              		@ frame_needed = 0, uses_anonymous_args = 0
 882 0000 08B5     		push	{r3, lr}
 883              		.cfi_def_cfa_offset 8
 884              		.cfi_offset 3, -8
 885              		.cfi_offset 14, -4
 261:can_manager.c ****     AIR_NEG_Write(1);
 886              		.loc 1 261 0
 887 0002 0120     		movs	r0, #1
 888 0004 FFF7FEFF 		bl	AIR_NEG_Write
 889              	.LVL34:
 262:can_manager.c ****     Precharge_Write(0);
 890              		.loc 1 262 0
 891 0008 0020     		movs	r0, #0
 892 000a FFF7FEFF 		bl	Precharge_Write
 893              	.LVL35:
 263:can_manager.c ****     AIR_POS_Write(1);
 894              		.loc 1 263 0
 895 000e 0120     		movs	r0, #1
 896 0010 FFF7FEFF 		bl	AIR_POS_Write
 897              	.LVL36:
 898 0014 08BD     		pop	{r3, pc}
 899              		.cfi_endproc
 900              	.LFE86:
 901              		.size	open_precharge, .-open_precharge
 902 0016 00BF     		.section	.text.clear_interlock,"ax",%progbits
 903              		.align	2
 904              		.global	clear_interlock
 905              		.thumb
 906              		.thumb_func
 907              		.type	clear_interlock, %function
 908              	clear_interlock:
 909              	.LFB87:
 264:can_manager.c **** }    
 265:can_manager.c **** 
 266:can_manager.c **** void clear_interlock()
 267:can_manager.c **** {
 910              		.loc 1 267 0
 911              		.cfi_startproc
 912              		@ args = 0, pretend = 0, frame = 0
 913              		@ frame_needed = 0, uses_anonymous_args = 0
 914 0000 08B5     		push	{r3, lr}
 915              		.cfi_def_cfa_offset 8
 916              		.cfi_offset 3, -8
 917              		.cfi_offset 14, -4
 268:can_manager.c ****     AIR_NEG_Write(0);
 918              		.loc 1 268 0
 919 0002 0020     		movs	r0, #0
 920 0004 FFF7FEFF 		bl	AIR_NEG_Write
 921              	.LVL37:
 269:can_manager.c ****     AIR_POS_Write(0);
 922              		.loc 1 269 0
 923 0008 0020     		movs	r0, #0
 924 000a FFF7FEFF 		bl	AIR_POS_Write
 925              	.LVL38:
 926 000e 08BD     		pop	{r3, pc}
ARM GAS  C:\Users\JUSTIN~1\AppData\Local\Temp\cc2B6kPx.s 			page 22


 927              		.cfi_endproc
 928              	.LFE87:
 929              		.size	clear_interlock, .-clear_interlock
 930              		.section	.text.can_send_PEI,"ax",%progbits
 931              		.align	2
 932              		.global	can_send_PEI
 933              		.thumb
 934              		.thumb_func
 935              		.type	can_send_PEI, %function
 936              	can_send_PEI:
 937              	.LFB88:
 270:can_manager.c ****     //can_send_interlock(0,0);
 271:can_manager.c **** }
 272:can_manager.c **** 
 273:can_manager.c **** //temporarily reporting AIR NEG/POS state on 3rd and 4th bytes of PCAN PEI message
 274:can_manager.c **** /* Used for debug purposes
 275:can_manager.c **** void can_send_interlock(uint8_t air_neg, uint8_t air_pos)
 276:can_manager.c **** {
 277:can_manager.c ****     uint8_t data[8] = {0};
 278:can_manager.c ****     data[3] = air_neg;
 279:can_manager.c ****     data[4] = air_pos;
 280:can_manager.c ****     can_send(data, 0x383); 
 281:can_manager.c **** }
 282:can_manager.c **** */
 283:can_manager.c **** 
 284:can_manager.c **** void can_send_PEI(uint8_t current_upper, uint8_t current_lower, uint8_t shutdown_flags)
 285:can_manager.c **** {
 938              		.loc 1 285 0
 939              		.cfi_startproc
 940              		@ args = 0, pretend = 0, frame = 8
 941              		@ frame_needed = 0, uses_anonymous_args = 0
 942              	.LVL39:
 943 0000 00B5     		push	{lr}
 944              		.cfi_def_cfa_offset 4
 945              		.cfi_offset 14, -4
 946 0002 83B0     		sub	sp, sp, #12
 947              		.cfi_def_cfa_offset 16
 286:can_manager.c ****     uint8_t data[8] = {0};
 948              		.loc 1 286 0
 949 0004 0023     		movs	r3, #0
 950 0006 0093     		str	r3, [sp]
 951 0008 0193     		str	r3, [sp, #4]
 287:can_manager.c **** 
 288:can_manager.c ****     data[0] = current_upper;
 952              		.loc 1 288 0
 953 000a 8DF80000 		strb	r0, [sp]
 289:can_manager.c ****     data[1] = current_lower;
 954              		.loc 1 289 0
 955 000e 8DF80110 		strb	r1, [sp, #1]
 290:can_manager.c ****     data[2] = shutdown_flags;
 956              		.loc 1 290 0
 957 0012 8DF80220 		strb	r2, [sp, #2]
 291:can_manager.c ****     can_send(data, 0x383); 
 958              		.loc 1 291 0
 959 0016 40F28331 		movw	r1, #899
 960              	.LVL40:
 961 001a 6846     		mov	r0, sp
ARM GAS  C:\Users\JUSTIN~1\AppData\Local\Temp\cc2B6kPx.s 			page 23


 962              	.LVL41:
 963 001c FFF7FEFF 		bl	can_send
 964              	.LVL42:
 292:can_manager.c **** }
 965              		.loc 1 292 0
 966 0020 03B0     		add	sp, sp, #12
 967              		.cfi_def_cfa_offset 4
 968              		@ sp needed
 969 0022 5DF804FB 		ldr	pc, [sp], #4
 970              		.cfi_endproc
 971              	.LFE88:
 972              		.size	can_send_PEI, .-can_send_PEI
 973              		.comm	PACK_VOLTAGE_4,1,1
 974              		.comm	PACK_VOLTAGE_3,1,1
 975              		.comm	PACK_VOLTAGE_2,1,1
 976              		.comm	PACK_VOLTAGE_1,1,1
 977              		.global	RUN_FAULT_HI_2
 978              		.global	RUN_FAULT_HI_1
 979              		.global	RUN_FAULT_LO_2
 980              		.global	RUN_FAULT_LO_1
 981              		.global	POST_FAULT_HI_2
 982              		.global	POST_FAULT_HI_1
 983              		.global	POST_FAULT_LO_2
 984              		.global	POST_FAULT_LO_1
 985              		.global	HV_REQUEST_MC
 986              		.global	STATE
 987              		.global	SET_INTERLOCK
 988              		.global	THROTTLE
 989              		.global	VEHICLE_STATE
 990              		.global	HV_REQUEST_TR
 991              		.global	ESTOP_MC
 992              		.global	THROTTLE_LOW
 993              		.global	THROTTLE_HIGH
 994 0026 00BF     		.bss
 995              		.set	.LANCHOR0,. + 0
 996              		.type	HV_REQUEST_TR, %object
 997              		.size	HV_REQUEST_TR, 1
 998              	HV_REQUEST_TR:
 999 0000 00       		.space	1
 1000              		.type	VEHICLE_STATE, %object
 1001              		.size	VEHICLE_STATE, 1
 1002              	VEHICLE_STATE:
 1003 0001 00       		.space	1
 1004              		.type	THROTTLE, %object
 1005              		.size	THROTTLE, 1
 1006              	THROTTLE:
 1007 0002 00       		.space	1
 1008              		.type	STATE, %object
 1009              		.size	STATE, 1
 1010              	STATE:
 1011 0003 00       		.space	1
 1012              		.type	POST_FAULT_LO_1, %object
 1013              		.size	POST_FAULT_LO_1, 1
 1014              	POST_FAULT_LO_1:
 1015 0004 00       		.space	1
 1016              		.type	POST_FAULT_LO_2, %object
 1017              		.size	POST_FAULT_LO_2, 1
ARM GAS  C:\Users\JUSTIN~1\AppData\Local\Temp\cc2B6kPx.s 			page 24


 1018              	POST_FAULT_LO_2:
 1019 0005 00       		.space	1
 1020              		.type	POST_FAULT_HI_1, %object
 1021              		.size	POST_FAULT_HI_1, 1
 1022              	POST_FAULT_HI_1:
 1023 0006 00       		.space	1
 1024              		.type	POST_FAULT_HI_2, %object
 1025              		.size	POST_FAULT_HI_2, 1
 1026              	POST_FAULT_HI_2:
 1027 0007 00       		.space	1
 1028              		.type	RUN_FAULT_LO_1, %object
 1029              		.size	RUN_FAULT_LO_1, 1
 1030              	RUN_FAULT_LO_1:
 1031 0008 00       		.space	1
 1032              		.type	RUN_FAULT_LO_2, %object
 1033              		.size	RUN_FAULT_LO_2, 1
 1034              	RUN_FAULT_LO_2:
 1035 0009 00       		.space	1
 1036              		.type	RUN_FAULT_HI_1, %object
 1037              		.size	RUN_FAULT_HI_1, 1
 1038              	RUN_FAULT_HI_1:
 1039 000a 00       		.space	1
 1040              		.type	RUN_FAULT_HI_2, %object
 1041              		.size	RUN_FAULT_HI_2, 1
 1042              	RUN_FAULT_HI_2:
 1043 000b 00       		.space	1
 1044              		.type	SET_INTERLOCK, %object
 1045              		.size	SET_INTERLOCK, 1
 1046              	SET_INTERLOCK:
 1047 000c 00       		.space	1
 1048              		.type	HV_REQUEST_MC, %object
 1049              		.size	HV_REQUEST_MC, 1
 1050              	HV_REQUEST_MC:
 1051 000d 00       		.space	1
 1052              		.type	ESTOP_MC, %object
 1053              		.size	ESTOP_MC, 1
 1054              	ESTOP_MC:
 1055 000e 00       		.space	1
 1056              		.type	THROTTLE_HIGH, %object
 1057              		.size	THROTTLE_HIGH, 1
 1058              	THROTTLE_HIGH:
 1059 000f 00       		.space	1
 1060              		.type	THROTTLE_LOW, %object
 1061              		.size	THROTTLE_LOW, 1
 1062              	THROTTLE_LOW:
 1063 0010 00       		.space	1
 1064              		.text
 1065              	.Letext0:
 1066              		.file 2 "c:\\program files (x86)\\cypress\\psoc creator\\4.4\\psoc creator\\import\\gnu\\arm\\5.4.
 1067              		.file 3 "c:\\program files (x86)\\cypress\\psoc creator\\4.4\\psoc creator\\import\\gnu\\arm\\5.4.
 1068              		.file 4 "Generated_Source\\PSoC5/cytypes.h"
 1069              		.file 5 "Generated_Source\\PSoC5/CAN.h"
 1070              		.file 6 "can_manager.h"
 1071              		.file 7 "Generated_Source\\PSoC5/core_cm3.h"
 1072              		.file 8 "Generated_Source\\PSoC5/CyLib.h"
 1073              		.file 9 "Generated_Source\\PSoC5/AIR_NEG.h"
 1074              		.file 10 "Generated_Source\\PSoC5/AIR_POS.h"
ARM GAS  C:\Users\JUSTIN~1\AppData\Local\Temp\cc2B6kPx.s 			page 25


 1075              		.file 11 "Generated_Source\\PSoC5/Precharge.h"