ARM GAS  C:\Users\JUSTIN~1\AppData\Local\Temp\ccICIB6p.s 			page 1


   1              		.syntax unified
   2              		.cpu cortex-m3
   3              		.fpu softvfp
   4              		.eabi_attribute 20, 1
   5              		.eabi_attribute 21, 1
   6              		.eabi_attribute 23, 3
   7              		.eabi_attribute 24, 1
   8              		.eabi_attribute 25, 1
   9              		.eabi_attribute 26, 1
  10              		.eabi_attribute 30, 1
  11              		.eabi_attribute 34, 1
  12              		.eabi_attribute 18, 4
  13              		.thumb
  14              		.syntax unified
  15              		.file	"main.c"
  16              		.text
  17              	.Ltext0:
  18              		.cfi_sections	.debug_frame
  19              		.section	.text.main,"ax",%progbits
  20              		.align	2
  21              		.global	main
  22              		.thumb
  23              		.thumb_func
  24              		.type	main, %function
  25              	main:
  26              	.LFB63:
  27              		.file 1 "main.c"
   1:main.c        **** /* ========================================
   2:main.c        ****  *
   3:main.c        ****  * Copyright YOUR COMPANY, THE YEAR
   4:main.c        ****  * All Rights Reserved
   5:main.c        ****  * UNPUBLISHED, LICENSED SOFTWARE.
   6:main.c        ****  *
   7:main.c        ****  * CONFIDENTIAL AND PROPRIETARY INFORMATION
   8:main.c        ****  * WHICH IS THE PROPERTY OF your company.
   9:main.c        ****  *
  10:main.c        ****  * ========================================
  11:main.c        **** */
  12:main.c        **** #include "project.h"
  13:main.c        **** #include "CAN.h"
  14:main.c        **** #include "can_manager.h"
  15:main.c        **** 
  16:main.c        **** //The state starts at 0
  17:main.c        **** volatile uint32_t state = 0;
  18:main.c        **** 
  19:main.c        **** int main(void)
  20:main.c        **** {
  28              		.loc 1 20 0
  29              		.cfi_startproc
  30              		@ args = 0, pretend = 0, frame = 0
  31              		@ frame_needed = 0, uses_anonymous_args = 0
  32 0000 38B5     		push	{r3, r4, r5, lr}
  33              		.cfi_def_cfa_offset 16
  34              		.cfi_offset 3, -16
  35              		.cfi_offset 4, -12
  36              		.cfi_offset 5, -8
  37              		.cfi_offset 14, -4
ARM GAS  C:\Users\JUSTIN~1\AppData\Local\Temp\ccICIB6p.s 			page 2


  21:main.c        ****     ///
  22:main.c        ****     
  23:main.c        ****     
  24:main.c        ****     //
  25:main.c        ****     
  26:main.c        ****     CyGlobalIntEnable; /* Enable global interrupts. */
  38              		.loc 1 26 0
  39              		.syntax unified
  40              	@ 26 "main.c" 1
  41 0002 62B6     		CPSIE   i
  42              	@ 0 "" 2
  27:main.c        ****     
  28:main.c        ****     //Initialize and start CAN
  29:main.c        ****     CAN_GlobalIntEnable();
  43              		.loc 1 29 0
  44              		.thumb
  45              		.syntax unified
  46 0004 FFF7FEFF 		bl	CAN_GlobalIntEnable
  47              	.LVL0:
  30:main.c        ****     CAN_Init();
  48              		.loc 1 30 0
  49 0008 FFF7FEFF 		bl	CAN_Init
  50              	.LVL1:
  31:main.c        ****     CAN_Start();
  51              		.loc 1 31 0
  52 000c FFF7FEFF 		bl	CAN_Start
  53              	.LVL2:
  32:main.c        ****     ADC_DelSig_1_Start();
  54              		.loc 1 32 0
  55 0010 FFF7FEFF 		bl	ADC_DelSig_1_Start
  56              	.LVL3:
  57              	.L15:
  58              	.LBB2:
  33:main.c        ****     
  34:main.c        ****     for(;;)
  35:main.c        ****     {
  36:main.c        ****         state = get_STATE();
  59              		.loc 1 36 0
  60 0014 FFF7FEFF 		bl	get_STATE
  61              	.LVL4:
  62 0018 3E4B     		ldr	r3, .L18
  63 001a 1860     		str	r0, [r3]
  37:main.c        ****         
  38:main.c        ****         //PEI board PICDUINO
  39:main.c        ****         // get current sensor data (RA6/RC0 ???)
  40:main.c        ****         // TODO: acquiring this conversion will need to change for current sensor; need 2 ADC chann
  41:main.c        ****         uint32_t current = (int32_t)ADC_DelSig_1_CountsTo_mVolts(ADC_DelSig_1_Read16());
  64              		.loc 1 41 0
  65 001c FFF7FEFF 		bl	ADC_DelSig_1_Read16
  66              	.LVL5:
  67 0020 FFF7FEFF 		bl	ADC_DelSig_1_CountsTo_mVolts
  68              	.LVL6:
  69 0024 0546     		mov	r5, r0
  70              	.LVL7:
  42:main.c        ****         
  43:main.c        ****        
  44:main.c        ****         
ARM GAS  C:\Users\JUSTIN~1\AppData\Local\Temp\ccICIB6p.s 			page 3


  45:main.c        ****         // shutdown flags, current
  46:main.c        ****         uint8_t shutdown_flags = 0;
  47:main.c        ****         uint8_t current_upper = 0;
  48:main.c        ****         uint8_t current_lower = 0;
  49:main.c        ****         
  50:main.c        ****         if (IMD_Fault_Read()) { shutdown_flags |= (1 << 5); }
  71              		.loc 1 50 0
  72 0026 FFF7FEFF 		bl	IMD_Fault_Read
  73              	.LVL8:
  74 002a 08B1     		cbz	r0, .L16
  75 002c 2024     		movs	r4, #32
  76 002e 00E0     		b	.L2
  77              	.L16:
  51:main.c        ****         else { shutdown_flags &= (0b011111); }
  78              		.loc 1 51 0
  79 0030 0024     		movs	r4, #0
  80              	.L2:
  81              	.LVL9:
  52:main.c        ****         
  53:main.c        ****         if (BMS_Fault_Read()) { shutdown_flags |= (1 << 4); }
  82              		.loc 1 53 0
  83 0032 FFF7FEFF 		bl	BMS_Fault_Read
  84              	.LVL10:
  85 0036 10B1     		cbz	r0, .L4
  86              		.loc 1 53 0 is_stmt 0 discriminator 1
  87 0038 44F01004 		orr	r4, r4, #16
  88              	.LVL11:
  89 003c E4B2     		uxtb	r4, r4
  90              	.LVL12:
  91              	.L4:
  54:main.c        ****         else { shutdown_flags &= (0b101111); }
  55:main.c        ****         
  56:main.c        ****         if (SD_FINAL_Read()) { shutdown_flags |= (1 << 3); }
  92              		.loc 1 56 0 is_stmt 1
  93 003e FFF7FEFF 		bl	SD_FINAL_Read
  94              	.LVL13:
  95 0042 10B1     		cbz	r0, .L5
  96              		.loc 1 56 0 is_stmt 0 discriminator 1
  97 0044 44F00802 		orr	r2, r4, #8
  98              	.LVL14:
  99 0048 01E0     		b	.L6
 100              	.LVL15:
 101              	.L5:
  57:main.c        ****         else { shutdown_flags &= (0b110111); }
 102              		.loc 1 57 0 is_stmt 1
 103 004a 04F03702 		and	r2, r4, #55
 104              	.LVL16:
 105              	.L6:
  58:main.c        ****         
  59:main.c        ****         
  60:main.c        ****         /* For debug purposes
  61:main.c        ****         if (AIR_POS_Read()) { shutdown_flags |= (1 << 2); }
  62:main.c        ****         else { shutdown_flags &= (0b111011); }
  63:main.c        ****         
  64:main.c        ****         if (AIR_NEG_Read()) { shutdown_flags |= (1 << 1); }
  65:main.c        ****         else { shutdown_flags &= (0b111101); }
  66:main.c        ****         
ARM GAS  C:\Users\JUSTIN~1\AppData\Local\Temp\ccICIB6p.s 			page 4


  67:main.c        ****         if (Precharge_Read()) { shutdown_flags |= (1 << 0); }
  68:main.c        ****         else { shutdown_flags &= (0b111110); }
  69:main.c        ****         */
  70:main.c        ****         
  71:main.c        ****         // send data via PCAN to BMS main
  72:main.c        ****         // note: uses 2's complement
  73:main.c        ****         current_upper = current >> 8; // upper bits
  74:main.c        ****         current_lower = current & 0xFF; // lower bits
  75:main.c        ****         can_send_PEI(current_upper, current_lower, shutdown_flags);
 106              		.loc 1 75 0
 107 004e E9B2     		uxtb	r1, r5
 108 0050 C5F30720 		ubfx	r0, r5, #8, #8
 109 0054 FFF7FEFF 		bl	can_send_PEI
 110              	.LVL17:
  76:main.c        ****         
  77:main.c        ****         
  78:main.c        ****         //Interlock state machine
  79:main.c        ****         if (state == 0) {
 111              		.loc 1 79 0
 112 0058 2E4B     		ldr	r3, .L18
 113 005a 1B68     		ldr	r3, [r3]
 114 005c 6BB9     		cbnz	r3, .L7
  80:main.c        ****             clear_interlock(); // clears interlock, send a message to open AIRs          
 115              		.loc 1 80 0
 116 005e FFF7FEFF 		bl	clear_interlock
 117              	.LVL18:
  81:main.c        ****             if((get_HV_Requested() > 0) && (get_ESTOP_Check() == 0)) {
 118              		.loc 1 81 0
 119 0062 FFF7FEFF 		bl	get_HV_Requested
 120              	.LVL19:
 121 0066 0028     		cmp	r0, #0
 122 0068 4AD0     		beq	.L8
 123              		.loc 1 81 0 is_stmt 0 discriminator 1
 124 006a FFF7FEFF 		bl	get_ESTOP_Check
 125              	.LVL20:
 126 006e 0028     		cmp	r0, #0
 127 0070 46D1     		bne	.L8
  82:main.c        ****                 state = 1;
 128              		.loc 1 82 0 is_stmt 1
 129 0072 0122     		movs	r2, #1
 130 0074 274B     		ldr	r3, .L18
 131 0076 1A60     		str	r2, [r3]
 132 0078 42E0     		b	.L8
 133              	.L7:
  83:main.c        ****             }
  84:main.c        ****         }
  85:main.c        ****         
  86:main.c        ****         
  87:main.c        ****         else if (state == 1) {
 134              		.loc 1 87 0
 135 007a 264B     		ldr	r3, .L18
 136 007c 1B68     		ldr	r3, [r3]
 137 007e 012B     		cmp	r3, #1
 138 0080 2CD1     		bne	.L9
 139              	.LBB3:
  88:main.c        ****             
  89:main.c        ****             
ARM GAS  C:\Users\JUSTIN~1\AppData\Local\Temp\ccICIB6p.s 			page 5


  90:main.c        ****             set_interlock(); //sets interlock, sends a message to close AIRs
 140              		.loc 1 90 0
 141 0082 FFF7FEFF 		bl	set_interlock
 142              	.LVL21:
  91:main.c        ****             uint8 throttle_high = get_THROTTLE_HIGH();
 143              		.loc 1 91 0
 144 0086 FFF7FEFF 		bl	get_THROTTLE_HIGH
 145              	.LVL22:
 146 008a 0446     		mov	r4, r0
 147              	.LVL23:
  92:main.c        ****             uint8 throttle_low = get_THROTTLE_LOW();
 148              		.loc 1 92 0
 149 008c FFF7FEFF 		bl	get_THROTTLE_LOW
 150              	.LVL24:
  93:main.c        ****             
  94:main.c        ****             if(((throttle_high * 255 + throttle_low) < 0) || ((throttle_high * 255 + throttle_low) 
 151              		.loc 1 94 0
 152 0090 C4EB0423 		rsb	r3, r4, r4, lsl #8
 153 0094 0344     		add	r3, r3, r0
 154 0096 B3F5004F 		cmp	r3, #32768
 155 009a 03D3     		bcc	.L10
  95:main.c        ****                 can_send_throttle(0);
 156              		.loc 1 95 0
 157 009c 0020     		movs	r0, #0
 158              	.LVL25:
 159 009e FFF7FEFF 		bl	can_send_throttle
 160              	.LVL26:
 161 00a2 03E0     		b	.L11
 162              	.LVL27:
 163              	.L10:
  96:main.c        ****             }
  97:main.c        ****             else {
  98:main.c        ****     			can_send_throttle(throttle_high * 255 + throttle_low);
 164              		.loc 1 98 0
 165 00a4 001B     		subs	r0, r0, r4
 166              	.LVL28:
 167 00a6 C0B2     		uxtb	r0, r0
 168 00a8 FFF7FEFF 		bl	can_send_throttle
 169              	.LVL29:
 170              	.L11:
  99:main.c        ****     			//the throttle signal is in bounds and is between 0 and 32767
 100:main.c        **** 	  	    }
 101:main.c        ****             
 102:main.c        ****             if(get_HV_Requested() == 0) {
 171              		.loc 1 102 0
 172 00ac FFF7FEFF 		bl	get_HV_Requested
 173              	.LVL30:
 174 00b0 18B9     		cbnz	r0, .L12
 103:main.c        ****                 state = 0;
 175              		.loc 1 103 0
 176 00b2 0022     		movs	r2, #0
 177 00b4 174B     		ldr	r3, .L18
 178 00b6 1A60     		str	r2, [r3]
 179 00b8 22E0     		b	.L8
 180              	.L12:
 104:main.c        ****             }
 105:main.c        ****             else if (get_ESTOP_Check() == 1) {
ARM GAS  C:\Users\JUSTIN~1\AppData\Local\Temp\ccICIB6p.s 			page 6


 181              		.loc 1 105 0
 182 00ba FFF7FEFF 		bl	get_ESTOP_Check
 183              	.LVL31:
 184 00be 0128     		cmp	r0, #1
 185 00c0 03D1     		bne	.L13
 106:main.c        ****                 state = 3;   
 186              		.loc 1 106 0
 187 00c2 0322     		movs	r2, #3
 188 00c4 134B     		ldr	r3, .L18
 189 00c6 1A60     		str	r2, [r3]
 190 00c8 1AE0     		b	.L8
 191              	.L13:
 107:main.c        ****             }
 108:main.c        ****             //All error flags sent over the torque request command CAN bus start with 0x8(x)
 109:main.c        ****             else if ((get_VEHICLE_STATE() & 0x80) == 0x80) {
 192              		.loc 1 109 0
 193 00ca FFF7FEFF 		bl	get_VEHICLE_STATE
 194              	.LVL32:
 195 00ce 10F0800F 		tst	r0, #128
 196 00d2 15D0     		beq	.L8
 110:main.c        ****                 state = 2;   
 197              		.loc 1 110 0
 198 00d4 0222     		movs	r2, #2
 199 00d6 0F4B     		ldr	r3, .L18
 200 00d8 1A60     		str	r2, [r3]
 201 00da 11E0     		b	.L8
 202              	.LVL33:
 203              	.L9:
 204              	.LBE3:
 111:main.c        ****             }
 112:main.c        ****                 
 113:main.c        ****             
 114:main.c        ****             /*May or may not need to check status 3
 115:main.c        ****             if(Status3 = 36) ; an OS defined variable that has info on driver faults
 116:main.c        **** 		        ; checks for 2 specific errors
 117:main.c        ****     		; Bit2 = Coi12 Driver Open/Short (Code 32)
 118:main.c        ****     		; Bit5 = PD Open/Short (Code 35)
 119:main.c        ****     		{
 120:main.c        ****     			state = 3
 121:main.c        ****     			e_stop = 1
 122:main.c        ****     			; sends CAN message saying that estop should activate
 123:main.c        ****     			send_mailbox(eStop)
 124:main.c        ****     		}
 125:main.c        ****         
 126:main.c        ****         
 127:main.c        ****             else if(Status3 > 0) 
 128:main.c        ****     		{
 129:main.c        ****     			; trap state
 130:main.c        ****     			state = 2
 131:main.c        ****     		}
 132:main.c        ****             
 133:main.c        ****             */
 134:main.c        ****         }
 135:main.c        ****         
 136:main.c        ****     
 137:main.c        ****         //Trap state
 138:main.c        ****         // is entered when there are more errors than just estop (Status3 > 0). 
ARM GAS  C:\Users\JUSTIN~1\AppData\Local\Temp\ccICIB6p.s 			page 7


 139:main.c        ****         else if(state == 2) {
 205              		.loc 1 139 0
 206 00dc 0D4B     		ldr	r3, .L18
 207 00de 1B68     		ldr	r3, [r3]
 208 00e0 022B     		cmp	r3, #2
 209 00e2 02D1     		bne	.L14
 140:main.c        **** 
 141:main.c        **** 		    clear_interlock(); // clears interlock, send a message to open AIRs
 210              		.loc 1 141 0
 211 00e4 FFF7FEFF 		bl	clear_interlock
 212              	.LVL34:
 213 00e8 0AE0     		b	.L8
 214              	.L14:
 142:main.c        **** 		    // set EM Brake = 0
 143:main.c        **** 		
 144:main.c        **** 	    }
 145:main.c        ****         else if (state == 3) {
 215              		.loc 1 145 0
 216 00ea 0A4B     		ldr	r3, .L18
 217 00ec 1B68     		ldr	r3, [r3]
 218 00ee 032B     		cmp	r3, #3
 219 00f0 06D1     		bne	.L8
 146:main.c        ****             
 147:main.c        ****             if (get_HV_Requested() == 0) {
 220              		.loc 1 147 0
 221 00f2 FFF7FEFF 		bl	get_HV_Requested
 222              	.LVL35:
 223 00f6 18B9     		cbnz	r0, .L8
 148:main.c        ****                 state = 0;
 224              		.loc 1 148 0
 225 00f8 064B     		ldr	r3, .L18
 226 00fa 1860     		str	r0, [r3]
 149:main.c        ****                 can_send_ESTOP(0);
 227              		.loc 1 149 0
 228 00fc FFF7FEFF 		bl	can_send_ESTOP
 229              	.LVL36:
 230              	.L8:
 150:main.c        ****             }
 151:main.c        ****         }
 152:main.c        ****         
 153:main.c        ****         can_send_state(state);    
 231              		.loc 1 153 0
 232 0100 044B     		ldr	r3, .L18
 233 0102 1868     		ldr	r0, [r3]
 234 0104 C0B2     		uxtb	r0, r0
 235 0106 FFF7FEFF 		bl	can_send_state
 236              	.LVL37:
 154:main.c        ****         
 155:main.c        ****         CyDelay(1000);
 237              		.loc 1 155 0
 238 010a 4FF47A70 		mov	r0, #1000
 239 010e FFF7FEFF 		bl	CyDelay
 240              	.LVL38:
 241              	.LBE2:
 156:main.c        ****     }
 242              		.loc 1 156 0
 243 0112 7FE7     		b	.L15
ARM GAS  C:\Users\JUSTIN~1\AppData\Local\Temp\ccICIB6p.s 			page 8


 244              	.L19:
 245              		.align	2
 246              	.L18:
 247 0114 00000000 		.word	.LANCHOR0
 248              		.cfi_endproc
 249              	.LFE63:
 250              		.size	main, .-main
 251              		.global	state
 252              		.bss
 253              		.align	2
 254              		.set	.LANCHOR0,. + 0
 255              		.type	state, %object
 256              		.size	state, 4
 257              	state:
 258 0000 00000000 		.space	4
 259              		.text
 260              	.Letext0:
 261              		.file 2 "c:\\program files (x86)\\cypress\\psoc creator\\4.4\\psoc creator\\import\\gnu\\arm\\5.4.
 262              		.file 3 "c:\\program files (x86)\\cypress\\psoc creator\\4.4\\psoc creator\\import\\gnu\\arm\\5.4.
 263              		.file 4 "Generated_Source\\PSoC5/cytypes.h"
 264              		.file 5 "Generated_Source\\PSoC5/core_cm3.h"
 265              		.file 6 "can_manager.h"
 266              		.file 7 "Generated_Source\\PSoC5/ADC_DelSig_1.h"
 267              		.file 8 "Generated_Source\\PSoC5/IMD_Fault.h"
 268              		.file 9 "Generated_Source\\PSoC5/BMS_Fault.h"
 269              		.file 10 "Generated_Source\\PSoC5/SD_FINAL.h"
 270              		.file 11 "Generated_Source\\PSoC5/CyLib.h"
 271              		.file 12 "Generated_Source\\PSoC5/CAN.h"