ARM GAS  C:\Users\leoja\AppData\Local\Temp\ccJOPtuv.s 			page 1


   1              		.syntax unified
   2              		.cpu cortex-m3
   3              		.fpu softvfp
   4              		.eabi_attribute 20, 1
   5              		.eabi_attribute 21, 1
   6              		.eabi_attribute 23, 3
   7              		.eabi_attribute 24, 1
   8              		.eabi_attribute 25, 1
   9              		.eabi_attribute 26, 1
  10              		.eabi_attribute 30, 1
  11              		.eabi_attribute 34, 1
  12              		.eabi_attribute 18, 4
  13              		.thumb
  14              		.syntax unified
  15              		.file	"main.c"
  16              		.text
  17              	.Ltext0:
  18              		.cfi_sections	.debug_frame
  19              		.global	__aeabi_i2d
  20              		.global	__aeabi_dmul
  21              		.global	__aeabi_ddiv
  22              		.global	__aeabi_dsub
  23              		.global	__aeabi_d2iz
  24              		.section	.text.get_current,"ax",%progbits
  25              		.align	2
  26              		.global	get_current
  27              		.thumb
  28              		.thumb_func
  29              		.type	get_current, %function
  30              	get_current:
  31              	.LFB65:
  32              		.file 1 "main.c"
   1:main.c        **** /* ========================================
   2:main.c        ****  *
   3:main.c        ****  * Copyright YOUR COMPANY, THE YEAR
   4:main.c        ****  * All Rights Reserved
   5:main.c        ****  * UNPUBLISHED, LICENSED SOFTWARE.
   6:main.c        ****  *
   7:main.c        ****  * CONFIDENTIAL AND PROPRIETARY INFORMATION
   8:main.c        ****  * WHICH IS THE PROPERTY OF your company.
   9:main.c        ****  *
  10:main.c        ****  * ========================================
  11:main.c        **** */
  12:main.c        **** 
  13:main.c        **** #include "main.h"
  14:main.c        **** 
  15:main.c        **** //pei parameters
  16:main.c        **** PEI_STATE_t pei_state = PEI_LV;
  17:main.c        **** uint8_t pei_status = NORMAL;
  18:main.c        **** int16_t current;
  19:main.c        **** uint8_t relay_flags = 0;
  20:main.c        **** 
  21:main.c        **** //vcu parameters
  22:main.c        **** VCU_STATE vcu_state = LV;
  23:main.c        **** uint8_t hv_requested = 0;
  24:main.c        **** uint8_t vcu_attached = 0;
  25:main.c        **** 
ARM GAS  C:\Users\leoja\AppData\Local\Temp\ccJOPtuv.s 			page 2


  26:main.c        **** //bms parameters 
  27:main.c        **** uint16_t bms_status = 0;
  28:main.c        **** uint16_t bms_voltage = 0;
  29:main.c        **** uint8_t bms_soc = 0;
  30:main.c        **** uint8_t bms_temp = 0;
  31:main.c        **** 
  32:main.c        **** //mc parameters
  33:main.c        **** int16_t mc_voltage = 0;
  34:main.c        **** MC_VSM_STATE mc_vsm_state = VSM_START;
  35:main.c        **** MC_DISCHARGE_STATE mc_discharge_state = DISCHARGE_DISABLED;
  36:main.c        **** uint16_t mc_post_faults = 0;
  37:main.c        **** uint16_t mc_run_faults = 0;
  38:main.c        **** 
  39:main.c        **** //charger parameters
  40:main.c        **** uint8_t charger_attached = 0;
  41:main.c        **** uint8_t charger_status = 0;
  42:main.c        **** 
  43:main.c        **** //loop counters
  44:main.c        **** uint16_t loop_counter = 0;
  45:main.c        **** uint16_t loops_since_vcu_message = 0;
  46:main.c        **** uint16_t loops_since_bms_message = 0;
  47:main.c        **** uint16_t loops_since_mc_message = 0;
  48:main.c        **** uint16_t loops_since_charger_message = 0;
  49:main.c        **** 
  50:main.c        **** int main(void)
  51:main.c        **** {
  52:main.c        ****     CyGlobalIntEnable; /* Enable global interrupts. */
  53:main.c        ****     
  54:main.c        ****     //Initialize and start CAN
  55:main.c        ****     CAN_GlobalIntEnable();
  56:main.c        ****     CAN_Init();
  57:main.c        ****     CAN_Start();
  58:main.c        ****     ADC_DelSig_1_Start();
  59:main.c        ****     LCD_Start();
  60:main.c        ****     
  61:main.c        ****     for(;;)
  62:main.c        ****     {       
  63:main.c        ****         // shutdown flags, current
  64:main.c        ****         uint8_t shutdown_flags = 0;
  65:main.c        ****         current = get_current();
  66:main.c        ****         
  67:main.c        ****         shutdown_flags = relay_flags & 0x07;
  68:main.c        ****         if (IMD_Fault_Read()) shutdown_flags |= (1 << 5);       
  69:main.c        ****         if (BMS_Fault_Read()) shutdown_flags |= (1 << 4);  
  70:main.c        ****         if (SD_FINAL_Read()) shutdown_flags |= (1 << 3);
  71:main.c        ****         
  72:main.c        ****         
  73:main.c        ****         //Interlock state machine
  74:main.c        ****         update_status();
  75:main.c        ****         
  76:main.c        ****         if(hv_allowed() == 0){
  77:main.c        ****             pei_state = PEI_FAULT;
  78:main.c        ****         }
  79:main.c        ****           
  80:main.c        ****         switch(pei_state){
  81:main.c        ****             case PEI_LV:
  82:main.c        ****                 clear_interlock(); // clears interlock, send a message to open AIRs   
ARM GAS  C:\Users\leoja\AppData\Local\Temp\ccJOPtuv.s 			page 3


  83:main.c        ****                 
  84:main.c        ****                 if(hv_request() && hv_allowed()) {
  85:main.c        ****                     if(vcu_attached && precharge_ready()){
  86:main.c        ****                         pei_state = PEI_PRECHARGE;
  87:main.c        ****                     } else if(charger_attached){
  88:main.c        ****                         pei_state = PEI_HV;   //charger doesn't need precharge
  89:main.c        ****                     }
  90:main.c        ****                 }
  91:main.c        ****                 
  92:main.c        ****                 break;
  93:main.c        ****             
  94:main.c        ****             case PEI_PRECHARGE:           
  95:main.c        ****                 start_precharge();
  96:main.c        ****                 
  97:main.c        ****                 //Todo: Capacitor (gotten value) >= 95% pack voltage (threshold that we measure in 
  98:main.c        ****                 //This if statement is incorrect
  99:main.c        ****                 if (precharge_complete()){
 100:main.c        ****                     pei_state = PEI_HV;
 101:main.c        ****                 }
 102:main.c        **** 
 103:main.c        ****                 if(hv_request() == 0) {
 104:main.c        ****                    pei_state = PEI_LV;
 105:main.c        ****                 }
 106:main.c        ****                 
 107:main.c        ****                 break;
 108:main.c        ****                 
 109:main.c        ****              case PEI_HV:
 110:main.c        ****                 finish_precharge();
 111:main.c        ****                 
 112:main.c        ****                 if(hv_request() == 0) {
 113:main.c        ****                    pei_state = PEI_LV;
 114:main.c        ****                 }
 115:main.c        ****                 
 116:main.c        ****                 break;
 117:main.c        ****                 
 118:main.c        ****             default:
 119:main.c        ****                 clear_interlock();
 120:main.c        ****                 pei_state = PEI_FAULT;
 121:main.c        ****                 
 122:main.c        ****                 if (hv_request() == 0 && hv_allowed()) {
 123:main.c        ****                     pei_state = PEI_LV;
 124:main.c        ****                 } 
 125:main.c        ****         }
 126:main.c        **** 
 127:main.c        ****         can_send_PEI(current, shutdown_flags);
 128:main.c        ****         check_can();
 129:main.c        ****         update_display();
 130:main.c        ****         
 131:main.c        ****         CyDelay(1000);
 132:main.c        ****     }
 133:main.c        **** }
 134:main.c        **** 
 135:main.c        **** 
 136:main.c        **** 
 137:main.c        **** int16_t get_current(){
  33              		.loc 1 137 0
  34              		.cfi_startproc
ARM GAS  C:\Users\leoja\AppData\Local\Temp\ccJOPtuv.s 			page 4


  35              		@ args = 0, pretend = 0, frame = 0
  36              		@ frame_needed = 0, uses_anonymous_args = 0
  37 0000 08B5     		push	{r3, lr}
  38              		.cfi_def_cfa_offset 8
  39              		.cfi_offset 3, -8
  40              		.cfi_offset 14, -4
 138:main.c        ****     double current_raw_mv = (double)ADC_DelSig_1_CountsTo_mVolts(ADC_DelSig_1_Read32());
  41              		.loc 1 138 0
  42 0002 FFF7FEFF 		bl	ADC_DelSig_1_Read32
  43              	.LVL0:
  44 0006 FFF7FEFF 		bl	ADC_DelSig_1_CountsTo_mVolts
  45              	.LVL1:
  46 000a FFF7FEFF 		bl	__aeabi_i2d
  47              	.LVL2:
 139:main.c        ****     int16_t current = (int16_t)(((current_raw_mv*5.0/3.3) - 2500)/6.667)*10;
  48              		.loc 1 139 0
  49 000e 0022     		movs	r2, #0
  50 0010 134B     		ldr	r3, .L3+24
  51 0012 FFF7FEFF 		bl	__aeabi_dmul
  52              	.LVL3:
  53 0016 0CA3     		adr	r3, .L3
  54 0018 D3E90023 		ldrd	r2, [r3]
  55 001c FFF7FEFF 		bl	__aeabi_ddiv
  56              	.LVL4:
  57 0020 0BA3     		adr	r3, .L3+8
  58 0022 D3E90023 		ldrd	r2, [r3]
  59 0026 FFF7FEFF 		bl	__aeabi_dsub
  60              	.LVL5:
  61 002a 0BA3     		adr	r3, .L3+16
  62 002c D3E90023 		ldrd	r2, [r3]
  63 0030 FFF7FEFF 		bl	__aeabi_ddiv
  64              	.LVL6:
  65 0034 FFF7FEFF 		bl	__aeabi_d2iz
  66              	.LVL7:
  67 0038 00B2     		sxth	r0, r0
  68 003a 00EB8003 		add	r3, r0, r0, lsl #2
  69 003e 5800     		lsls	r0, r3, #1
  70              	.LVL8:
 140:main.c        ****     return current;
 141:main.c        **** }
  71              		.loc 1 141 0
  72 0040 00B2     		sxth	r0, r0
  73 0042 08BD     		pop	{r3, pc}
  74              	.L4:
  75 0044 AFF30080 		.align	3
  76              	.L3:
  77 0048 66666666 		.word	1717986918
  78 004c 66660A40 		.word	1074423398
  79 0050 00000000 		.word	0
  80 0054 0088A340 		.word	1084459008
  81 0058 5EBA490C 		.word	206158430
  82 005c 02AB1A40 		.word	1075489538
  83 0060 00001440 		.word	1075052544
  84              		.cfi_endproc
  85              	.LFE65:
  86              		.size	get_current, .-get_current
  87              		.section	.text.main,"ax",%progbits
ARM GAS  C:\Users\leoja\AppData\Local\Temp\ccJOPtuv.s 			page 5


  88              		.align	2
  89              		.global	main
  90              		.thumb
  91              		.thumb_func
  92              		.type	main, %function
  93              	main:
  94              	.LFB64:
  51:main.c        ****     CyGlobalIntEnable; /* Enable global interrupts. */
  95              		.loc 1 51 0
  96              		.cfi_startproc
  97              		@ args = 0, pretend = 0, frame = 0
  98              		@ frame_needed = 0, uses_anonymous_args = 0
  99 0000 10B5     		push	{r4, lr}
 100              		.cfi_def_cfa_offset 8
 101              		.cfi_offset 4, -8
 102              		.cfi_offset 14, -4
  52:main.c        ****     
 103              		.loc 1 52 0
 104              		.syntax unified
 105              	@ 52 "main.c" 1
 106 0002 62B6     		CPSIE   i
 107              	@ 0 "" 2
  55:main.c        ****     CAN_Init();
 108              		.loc 1 55 0
 109              		.thumb
 110              		.syntax unified
 111 0004 FFF7FEFF 		bl	CAN_GlobalIntEnable
 112              	.LVL9:
  56:main.c        ****     CAN_Start();
 113              		.loc 1 56 0
 114 0008 FFF7FEFF 		bl	CAN_Init
 115              	.LVL10:
  57:main.c        ****     ADC_DelSig_1_Start();
 116              		.loc 1 57 0
 117 000c FFF7FEFF 		bl	CAN_Start
 118              	.LVL11:
  58:main.c        ****     LCD_Start();
 119              		.loc 1 58 0
 120 0010 FFF7FEFF 		bl	ADC_DelSig_1_Start
 121              	.LVL12:
  59:main.c        ****     
 122              		.loc 1 59 0
 123 0014 FFF7FEFF 		bl	LCD_Start
 124              	.LVL13:
 125              	.L17:
 126              	.LBB2:
  65:main.c        ****         
 127              		.loc 1 65 0
 128 0018 FFF7FEFF 		bl	get_current
 129              	.LVL14:
 130 001c 3A4B     		ldr	r3, .L20
 131 001e 1880     		strh	r0, [r3]	@ movhi
  67:main.c        ****         if (IMD_Fault_Read()) shutdown_flags |= (1 << 5);       
 132              		.loc 1 67 0
 133 0020 3A4B     		ldr	r3, .L20+4
 134 0022 1C78     		ldrb	r4, [r3]	@ zero_extendqisi2
 135 0024 04F00704 		and	r4, r4, #7
ARM GAS  C:\Users\leoja\AppData\Local\Temp\ccJOPtuv.s 			page 6


 136              	.LVL15:
  68:main.c        ****         if (BMS_Fault_Read()) shutdown_flags |= (1 << 4);  
 137              		.loc 1 68 0
 138 0028 FFF7FEFF 		bl	IMD_Fault_Read
 139              	.LVL16:
 140 002c 08B1     		cbz	r0, .L6
  68:main.c        ****         if (BMS_Fault_Read()) shutdown_flags |= (1 << 4);  
 141              		.loc 1 68 0 is_stmt 0 discriminator 1
 142 002e 44F02004 		orr	r4, r4, #32
 143              	.LVL17:
 144              	.L6:
  69:main.c        ****         if (SD_FINAL_Read()) shutdown_flags |= (1 << 3);
 145              		.loc 1 69 0 is_stmt 1
 146 0032 FFF7FEFF 		bl	BMS_Fault_Read
 147              	.LVL18:
 148 0036 08B1     		cbz	r0, .L7
  69:main.c        ****         if (SD_FINAL_Read()) shutdown_flags |= (1 << 3);
 149              		.loc 1 69 0 is_stmt 0 discriminator 1
 150 0038 44F01004 		orr	r4, r4, #16
 151              	.LVL19:
 152              	.L7:
  70:main.c        ****         
 153              		.loc 1 70 0 is_stmt 1
 154 003c FFF7FEFF 		bl	SD_FINAL_Read
 155              	.LVL20:
 156 0040 08B1     		cbz	r0, .L8
  70:main.c        ****         
 157              		.loc 1 70 0 is_stmt 0 discriminator 1
 158 0042 44F00804 		orr	r4, r4, #8
 159              	.LVL21:
 160              	.L8:
  74:main.c        ****         
 161              		.loc 1 74 0 is_stmt 1
 162 0046 FFF7FEFF 		bl	update_status
 163              	.LVL22:
  76:main.c        ****             pei_state = PEI_FAULT;
 164              		.loc 1 76 0
 165 004a FFF7FEFF 		bl	hv_allowed
 166              	.LVL23:
 167 004e 10B9     		cbnz	r0, .L9
  77:main.c        ****         }
 168              		.loc 1 77 0
 169 0050 0322     		movs	r2, #3
 170 0052 2E4B     		ldr	r3, .L20+4
 171 0054 5A70     		strb	r2, [r3, #1]
 172              	.L9:
  80:main.c        ****             case PEI_LV:
 173              		.loc 1 80 0
 174 0056 2D4B     		ldr	r3, .L20+4
 175 0058 5B78     		ldrb	r3, [r3, #1]	@ zero_extendqisi2
 176 005a 012B     		cmp	r3, #1
 177 005c 1ED0     		beq	.L11
 178 005e 13B1     		cbz	r3, .L12
 179 0060 022B     		cmp	r3, #2
 180 0062 2AD0     		beq	.L13
 181 0064 32E0     		b	.L18
 182              	.L12:
ARM GAS  C:\Users\leoja\AppData\Local\Temp\ccJOPtuv.s 			page 7


  82:main.c        ****                 
 183              		.loc 1 82 0
 184 0066 FFF7FEFF 		bl	clear_interlock
 185              	.LVL24:
  84:main.c        ****                     if(vcu_attached && precharge_ready()){
 186              		.loc 1 84 0
 187 006a FFF7FEFF 		bl	hv_request
 188              	.LVL25:
 189 006e 0028     		cmp	r0, #0
 190 0070 3AD0     		beq	.L14
  84:main.c        ****                     if(vcu_attached && precharge_ready()){
 191              		.loc 1 84 0 is_stmt 0 discriminator 1
 192 0072 FFF7FEFF 		bl	hv_allowed
 193              	.LVL26:
 194 0076 0028     		cmp	r0, #0
 195 0078 36D0     		beq	.L14
  85:main.c        ****                         pei_state = PEI_PRECHARGE;
 196              		.loc 1 85 0 is_stmt 1
 197 007a 244B     		ldr	r3, .L20+4
 198 007c 9B78     		ldrb	r3, [r3, #2]	@ zero_extendqisi2
 199 007e 33B1     		cbz	r3, .L15
  85:main.c        ****                         pei_state = PEI_PRECHARGE;
 200              		.loc 1 85 0 is_stmt 0 discriminator 1
 201 0080 FFF7FEFF 		bl	precharge_ready
 202              	.LVL27:
 203 0084 18B1     		cbz	r0, .L15
  86:main.c        ****                     } else if(charger_attached){
 204              		.loc 1 86 0 is_stmt 1
 205 0086 0122     		movs	r2, #1
 206 0088 204B     		ldr	r3, .L20+4
 207 008a 5A70     		strb	r2, [r3, #1]
 208 008c 2CE0     		b	.L14
 209              	.L15:
  87:main.c        ****                         pei_state = PEI_HV;   //charger doesn't need precharge
 210              		.loc 1 87 0
 211 008e 1F4B     		ldr	r3, .L20+4
 212 0090 DB78     		ldrb	r3, [r3, #3]	@ zero_extendqisi2
 213 0092 4BB3     		cbz	r3, .L14
  88:main.c        ****                     }
 214              		.loc 1 88 0
 215 0094 0222     		movs	r2, #2
 216 0096 1D4B     		ldr	r3, .L20+4
 217 0098 5A70     		strb	r2, [r3, #1]
 218 009a 25E0     		b	.L14
 219              	.L11:
  95:main.c        ****                 
 220              		.loc 1 95 0
 221 009c FFF7FEFF 		bl	start_precharge
 222              	.LVL28:
  99:main.c        ****                     pei_state = PEI_HV;
 223              		.loc 1 99 0
 224 00a0 FFF7FEFF 		bl	precharge_complete
 225              	.LVL29:
 226 00a4 10B1     		cbz	r0, .L16
 100:main.c        ****                 }
 227              		.loc 1 100 0
 228 00a6 0222     		movs	r2, #2
ARM GAS  C:\Users\leoja\AppData\Local\Temp\ccJOPtuv.s 			page 8


 229 00a8 184B     		ldr	r3, .L20+4
 230 00aa 5A70     		strb	r2, [r3, #1]
 231              	.L16:
 103:main.c        ****                    pei_state = PEI_LV;
 232              		.loc 1 103 0
 233 00ac FFF7FEFF 		bl	hv_request
 234              	.LVL30:
 235 00b0 D0B9     		cbnz	r0, .L14
 104:main.c        ****                 }
 236              		.loc 1 104 0
 237 00b2 0022     		movs	r2, #0
 238 00b4 154B     		ldr	r3, .L20+4
 239 00b6 5A70     		strb	r2, [r3, #1]
 240 00b8 16E0     		b	.L14
 241              	.L13:
 110:main.c        ****                 
 242              		.loc 1 110 0
 243 00ba FFF7FEFF 		bl	finish_precharge
 244              	.LVL31:
 112:main.c        ****                    pei_state = PEI_LV;
 245              		.loc 1 112 0
 246 00be FFF7FEFF 		bl	hv_request
 247              	.LVL32:
 248 00c2 88B9     		cbnz	r0, .L14
 113:main.c        ****                 }
 249              		.loc 1 113 0
 250 00c4 0022     		movs	r2, #0
 251 00c6 114B     		ldr	r3, .L20+4
 252 00c8 5A70     		strb	r2, [r3, #1]
 253 00ca 0DE0     		b	.L14
 254              	.L18:
 119:main.c        ****                 pei_state = PEI_FAULT;
 255              		.loc 1 119 0
 256 00cc FFF7FEFF 		bl	clear_interlock
 257              	.LVL33:
 120:main.c        ****                 
 258              		.loc 1 120 0
 259 00d0 0322     		movs	r2, #3
 260 00d2 0E4B     		ldr	r3, .L20+4
 261 00d4 5A70     		strb	r2, [r3, #1]
 122:main.c        ****                     pei_state = PEI_LV;
 262              		.loc 1 122 0
 263 00d6 FFF7FEFF 		bl	hv_request
 264              	.LVL34:
 265 00da 28B9     		cbnz	r0, .L14
 122:main.c        ****                     pei_state = PEI_LV;
 266              		.loc 1 122 0 is_stmt 0 discriminator 1
 267 00dc FFF7FEFF 		bl	hv_allowed
 268              	.LVL35:
 269 00e0 10B1     		cbz	r0, .L14
 123:main.c        ****                 } 
 270              		.loc 1 123 0 is_stmt 1
 271 00e2 0022     		movs	r2, #0
 272 00e4 094B     		ldr	r3, .L20+4
 273 00e6 5A70     		strb	r2, [r3, #1]
 274              	.L14:
 127:main.c        ****         check_can();
ARM GAS  C:\Users\leoja\AppData\Local\Temp\ccJOPtuv.s 			page 9


 275              		.loc 1 127 0
 276 00e8 2146     		mov	r1, r4
 277 00ea 074B     		ldr	r3, .L20
 278 00ec B3F90000 		ldrsh	r0, [r3]
 279 00f0 FFF7FEFF 		bl	can_send_PEI
 280              	.LVL36:
 128:main.c        ****         update_display();
 281              		.loc 1 128 0
 282 00f4 FFF7FEFF 		bl	check_can
 283              	.LVL37:
 129:main.c        ****         
 284              		.loc 1 129 0
 285 00f8 FFF7FEFF 		bl	update_display
 286              	.LVL38:
 131:main.c        ****     }
 287              		.loc 1 131 0
 288 00fc 4FF47A70 		mov	r0, #1000
 289 0100 FFF7FEFF 		bl	CyDelay
 290              	.LVL39:
 291              	.LBE2:
 132:main.c        **** }
 292              		.loc 1 132 0
 293 0104 88E7     		b	.L17
 294              	.L21:
 295 0106 00BF     		.align	2
 296              	.L20:
 297 0108 00000000 		.word	current
 298 010c 00000000 		.word	.LANCHOR0
 299              		.cfi_endproc
 300              	.LFE64:
 301              		.size	main, .-main
 302              		.global	loops_since_charger_message
 303              		.global	loops_since_mc_message
 304              		.global	loops_since_bms_message
 305              		.global	loops_since_vcu_message
 306              		.global	loop_counter
 307              		.global	charger_status
 308              		.global	charger_attached
 309              		.global	mc_run_faults
 310              		.global	mc_post_faults
 311              		.global	mc_discharge_state
 312              		.global	mc_vsm_state
 313              		.global	mc_voltage
 314              		.global	bms_temp
 315              		.global	bms_soc
 316              		.global	bms_voltage
 317              		.global	bms_status
 318              		.global	vcu_attached
 319              		.global	hv_requested
 320              		.global	vcu_state
 321              		.global	relay_flags
 322              		.comm	current,2,2
 323              		.global	pei_status
 324              		.global	pei_state
 325              		.bss
 326              		.align	1
 327              		.set	.LANCHOR0,. + 0
ARM GAS  C:\Users\leoja\AppData\Local\Temp\ccJOPtuv.s 			page 10


 328              		.type	relay_flags, %object
 329              		.size	relay_flags, 1
 330              	relay_flags:
 331 0000 00       		.space	1
 332              		.type	pei_state, %object
 333              		.size	pei_state, 1
 334              	pei_state:
 335 0001 00       		.space	1
 336              		.type	vcu_attached, %object
 337              		.size	vcu_attached, 1
 338              	vcu_attached:
 339 0002 00       		.space	1
 340              		.type	charger_attached, %object
 341              		.size	charger_attached, 1
 342              	charger_attached:
 343 0003 00       		.space	1
 344              		.type	loops_since_charger_message, %object
 345              		.size	loops_since_charger_message, 2
 346              	loops_since_charger_message:
 347 0004 0000     		.space	2
 348              		.type	loops_since_mc_message, %object
 349              		.size	loops_since_mc_message, 2
 350              	loops_since_mc_message:
 351 0006 0000     		.space	2
 352              		.type	loops_since_bms_message, %object
 353              		.size	loops_since_bms_message, 2
 354              	loops_since_bms_message:
 355 0008 0000     		.space	2
 356              		.type	loops_since_vcu_message, %object
 357              		.size	loops_since_vcu_message, 2
 358              	loops_since_vcu_message:
 359 000a 0000     		.space	2
 360              		.type	loop_counter, %object
 361              		.size	loop_counter, 2
 362              	loop_counter:
 363 000c 0000     		.space	2
 364              		.type	charger_status, %object
 365              		.size	charger_status, 1
 366              	charger_status:
 367 000e 00       		.space	1
 368 000f 00       		.space	1
 369              		.type	mc_run_faults, %object
 370              		.size	mc_run_faults, 2
 371              	mc_run_faults:
 372 0010 0000     		.space	2
 373              		.type	mc_post_faults, %object
 374              		.size	mc_post_faults, 2
 375              	mc_post_faults:
 376 0012 0000     		.space	2
 377              		.type	mc_discharge_state, %object
 378              		.size	mc_discharge_state, 1
 379              	mc_discharge_state:
 380 0014 00       		.space	1
 381              		.type	mc_vsm_state, %object
 382              		.size	mc_vsm_state, 1
 383              	mc_vsm_state:
 384 0015 00       		.space	1
ARM GAS  C:\Users\leoja\AppData\Local\Temp\ccJOPtuv.s 			page 11


 385              		.type	mc_voltage, %object
 386              		.size	mc_voltage, 2
 387              	mc_voltage:
 388 0016 0000     		.space	2
 389              		.type	bms_temp, %object
 390              		.size	bms_temp, 1
 391              	bms_temp:
 392 0018 00       		.space	1
 393              		.type	bms_soc, %object
 394              		.size	bms_soc, 1
 395              	bms_soc:
 396 0019 00       		.space	1
 397              		.type	bms_voltage, %object
 398              		.size	bms_voltage, 2
 399              	bms_voltage:
 400 001a 0000     		.space	2
 401              		.type	bms_status, %object
 402              		.size	bms_status, 2
 403              	bms_status:
 404 001c 0000     		.space	2
 405              		.type	hv_requested, %object
 406              		.size	hv_requested, 1
 407              	hv_requested:
 408 001e 00       		.space	1
 409              		.type	vcu_state, %object
 410              		.size	vcu_state, 1
 411              	vcu_state:
 412 001f 00       		.space	1
 413              		.type	pei_status, %object
 414              		.size	pei_status, 1
 415              	pei_status:
 416 0020 00       		.space	1
 417              		.text
 418              	.Letext0:
 419              		.file 2 "c:\\program files (x86)\\cypress\\psoc creator\\4.4\\psoc creator\\import\\gnu\\arm\\5.4.
 420              		.file 3 "c:\\program files (x86)\\cypress\\psoc creator\\4.4\\psoc creator\\import\\gnu\\arm\\5.4.
 421              		.file 4 "fsm.h"
 422              		.file 5 "Generated_Source\\PSoC5/core_cm3.h"
 423              		.file 6 "Generated_Source\\PSoC5/ADC_DelSig_1.h"
 424              		.file 7 "Generated_Source\\PSoC5/IMD_Fault.h"
 425              		.file 8 "Generated_Source\\PSoC5/BMS_Fault.h"
 426              		.file 9 "Generated_Source\\PSoC5/SD_FINAL.h"
 427              		.file 10 "relays.h"
 428              		.file 11 "can_manager.h"
 429              		.file 12 "display.h"
 430              		.file 13 "Generated_Source\\PSoC5/CyLib.h"
 431              		.file 14 "Generated_Source\\PSoC5/CAN.h"
 432              		.file 15 "Generated_Source\\PSoC5/LCD.h"