ARM GAS  C:\Users\leoja\AppData\Local\Temp\ccONnuUd.s 			page 1


   1              		.syntax unified
   2              		.cpu cortex-m3
   3              		.fpu softvfp
   4              		.eabi_attribute 20, 1
   5              		.eabi_attribute 21, 1
   6              		.eabi_attribute 23, 3
   7              		.eabi_attribute 24, 1
   8              		.eabi_attribute 25, 1
   9              		.eabi_attribute 26, 1
  10              		.eabi_attribute 30, 1
  11              		.eabi_attribute 34, 1
  12              		.eabi_attribute 18, 4
  13              		.thumb
  14              		.syntax unified
  15              		.file	"relays.c"
  16              		.text
  17              	.Ltext0:
  18              		.cfi_sections	.debug_frame
  19              		.section	.text.start_precharge,"ax",%progbits
  20              		.align	2
  21              		.global	start_precharge
  22              		.thumb
  23              		.thumb_func
  24              		.type	start_precharge, %function
  25              	start_precharge:
  26              	.LFB63:
  27              		.file 1 "relays.c"
   1:relays.c      **** /* ========================================
   2:relays.c      ****  *
   3:relays.c      ****  * Copyright YOUR COMPANY, THE YEAR
   4:relays.c      ****  * All Rights Reserved
   5:relays.c      ****  * UNPUBLISHED, LICENSED SOFTWARE.
   6:relays.c      ****  *
   7:relays.c      ****  * CONFIDENTIAL AND PROPRIETARY INFORMATION
   8:relays.c      ****  * WHICH IS THE PROPERTY OF your company.
   9:relays.c      ****  *
  10:relays.c      ****  * ========================================
  11:relays.c      **** */
  12:relays.c      **** 
  13:relays.c      **** #include "relays.h"
  14:relays.c      **** 
  15:relays.c      **** //Closes the precharge relay, opens the positive relay
  16:relays.c      **** void start_precharge() {
  28              		.loc 1 16 0
  29              		.cfi_startproc
  30              		@ args = 0, pretend = 0, frame = 0
  31              		@ frame_needed = 0, uses_anonymous_args = 0
  32 0000 08B5     		push	{r3, lr}
  33              		.cfi_def_cfa_offset 8
  34              		.cfi_offset 3, -8
  35              		.cfi_offset 14, -4
  17:relays.c      ****     AIR_NEG_Write(1);
  36              		.loc 1 17 0
  37 0002 0120     		movs	r0, #1
  38 0004 FFF7FEFF 		bl	AIR_NEG_Write
  39              	.LVL0:
  18:relays.c      ****     AIR_POS_Write(0);
ARM GAS  C:\Users\leoja\AppData\Local\Temp\ccONnuUd.s 			page 2


  40              		.loc 1 18 0
  41 0008 0020     		movs	r0, #0
  42 000a FFF7FEFF 		bl	AIR_POS_Write
  43              	.LVL1:
  19:relays.c      ****     Precharge_Write(1);
  44              		.loc 1 19 0
  45 000e 0120     		movs	r0, #1
  46 0010 FFF7FEFF 		bl	Precharge_Write
  47              	.LVL2:
  48 0014 08BD     		pop	{r3, pc}
  49              		.cfi_endproc
  50              	.LFE63:
  51              		.size	start_precharge, .-start_precharge
  52 0016 00BF     		.section	.text.finish_precharge,"ax",%progbits
  53              		.align	2
  54              		.global	finish_precharge
  55              		.thumb
  56              		.thumb_func
  57              		.type	finish_precharge, %function
  58              	finish_precharge:
  59              	.LFB64:
  20:relays.c      **** }
  21:relays.c      **** 
  22:relays.c      **** //Opens the precharge relay, closese the positive relay
  23:relays.c      **** void finish_precharge()
  24:relays.c      **** {
  60              		.loc 1 24 0
  61              		.cfi_startproc
  62              		@ args = 0, pretend = 0, frame = 0
  63              		@ frame_needed = 0, uses_anonymous_args = 0
  64 0000 08B5     		push	{r3, lr}
  65              		.cfi_def_cfa_offset 8
  66              		.cfi_offset 3, -8
  67              		.cfi_offset 14, -4
  25:relays.c      ****     AIR_NEG_Write(1);
  68              		.loc 1 25 0
  69 0002 0120     		movs	r0, #1
  70 0004 FFF7FEFF 		bl	AIR_NEG_Write
  71              	.LVL3:
  26:relays.c      ****     Precharge_Write(0);
  72              		.loc 1 26 0
  73 0008 0020     		movs	r0, #0
  74 000a FFF7FEFF 		bl	Precharge_Write
  75              	.LVL4:
  27:relays.c      ****     AIR_POS_Write(1);
  76              		.loc 1 27 0
  77 000e 0120     		movs	r0, #1
  78 0010 FFF7FEFF 		bl	AIR_POS_Write
  79              	.LVL5:
  80 0014 08BD     		pop	{r3, pc}
  81              		.cfi_endproc
  82              	.LFE64:
  83              		.size	finish_precharge, .-finish_precharge
  84 0016 00BF     		.section	.text.clear_interlock,"ax",%progbits
  85              		.align	2
  86              		.global	clear_interlock
  87              		.thumb
ARM GAS  C:\Users\leoja\AppData\Local\Temp\ccONnuUd.s 			page 3


  88              		.thumb_func
  89              		.type	clear_interlock, %function
  90              	clear_interlock:
  91              	.LFB65:
  28:relays.c      **** }    
  29:relays.c      **** 
  30:relays.c      **** void clear_interlock()
  31:relays.c      **** {
  92              		.loc 1 31 0
  93              		.cfi_startproc
  94              		@ args = 0, pretend = 0, frame = 0
  95              		@ frame_needed = 0, uses_anonymous_args = 0
  96 0000 08B5     		push	{r3, lr}
  97              		.cfi_def_cfa_offset 8
  98              		.cfi_offset 3, -8
  99              		.cfi_offset 14, -4
  32:relays.c      ****     AIR_NEG_Write(0);
 100              		.loc 1 32 0
 101 0002 0020     		movs	r0, #0
 102 0004 FFF7FEFF 		bl	AIR_NEG_Write
 103              	.LVL6:
  33:relays.c      ****     AIR_POS_Write(0);
 104              		.loc 1 33 0
 105 0008 0020     		movs	r0, #0
 106 000a FFF7FEFF 		bl	AIR_POS_Write
 107              	.LVL7:
  34:relays.c      ****     Precharge_Write(0);
 108              		.loc 1 34 0
 109 000e 0020     		movs	r0, #0
 110 0010 FFF7FEFF 		bl	Precharge_Write
 111              	.LVL8:
 112 0014 08BD     		pop	{r3, pc}
 113              		.cfi_endproc
 114              	.LFE65:
 115              		.size	clear_interlock, .-clear_interlock
 116 0016 00BF     		.text
 117              	.Letext0:
 118              		.file 2 "c:\\program files (x86)\\cypress\\psoc creator\\4.4\\psoc creator\\import\\gnu\\arm\\5.4.
 119              		.file 3 "c:\\program files (x86)\\cypress\\psoc creator\\4.4\\psoc creator\\import\\gnu\\arm\\5.4.
 120              		.file 4 "Generated_Source\\PSoC5/AIR_NEG.h"
 121              		.file 5 "Generated_Source\\PSoC5/AIR_POS.h"
 122              		.file 6 "Generated_Source\\PSoC5/Precharge.h"
 123              		.file 7 "Generated_Source\\PSoC5/core_cm3.h"