ARM GAS  C:\Users\leoja\AppData\Local\Temp\cctKjm6z.s 			page 1


   1              		.syntax unified
   2              		.cpu cortex-m3
   3              		.fpu softvfp
   4              		.eabi_attribute 20, 1
   5              		.eabi_attribute 21, 1
   6              		.eabi_attribute 23, 3
   7              		.eabi_attribute 24, 1
   8              		.eabi_attribute 25, 1
   9              		.eabi_attribute 26, 1
  10              		.eabi_attribute 30, 1
  11              		.eabi_attribute 34, 1
  12              		.eabi_attribute 18, 4
  13              		.thumb
  14              		.syntax unified
  15              		.file	"CAN_TX_RX_func.c"
  16              		.text
  17              	.Ltext0:
  18              		.cfi_sections	.debug_frame
  19              		.section	.text.CAN_SendMsg,"ax",%progbits
  20              		.align	2
  21              		.global	CAN_SendMsg
  22              		.thumb
  23              		.thumb_func
  24              		.type	CAN_SendMsg, %function
  25              	CAN_SendMsg:
  26              	.LFB0:
  27              		.file 1 "Generated_Source\\PSoC5\\CAN_TX_RX_func.c"
   1:Generated_Source\PSoC5/CAN_TX_RX_func.c **** /*******************************************************************************
   2:Generated_Source\PSoC5/CAN_TX_RX_func.c **** * File Name: CAN_TX_RX_func.c
   3:Generated_Source\PSoC5/CAN_TX_RX_func.c **** * Version 3.0
   4:Generated_Source\PSoC5/CAN_TX_RX_func.c **** *
   5:Generated_Source\PSoC5/CAN_TX_RX_func.c **** * Description:
   6:Generated_Source\PSoC5/CAN_TX_RX_func.c **** *  There are functions process "Full" Receive and Transmit mailboxes:
   7:Generated_Source\PSoC5/CAN_TX_RX_func.c **** *     - CAN_SendMsg0-7();
   8:Generated_Source\PSoC5/CAN_TX_RX_func.c **** *     - CAN_ReceiveMsg0-15();
   9:Generated_Source\PSoC5/CAN_TX_RX_func.c **** *  Transmission of message, and receive routine for "Basic" mailboxes:
  10:Generated_Source\PSoC5/CAN_TX_RX_func.c **** *     - CAN_SendMsg();
  11:Generated_Source\PSoC5/CAN_TX_RX_func.c **** *     - CAN_TxCancel();
  12:Generated_Source\PSoC5/CAN_TX_RX_func.c **** *     - CAN_ReceiveMsg();
  13:Generated_Source\PSoC5/CAN_TX_RX_func.c **** *
  14:Generated_Source\PSoC5/CAN_TX_RX_func.c **** *  Note:
  15:Generated_Source\PSoC5/CAN_TX_RX_func.c **** *   None
  16:Generated_Source\PSoC5/CAN_TX_RX_func.c **** *
  17:Generated_Source\PSoC5/CAN_TX_RX_func.c **** ********************************************************************************
  18:Generated_Source\PSoC5/CAN_TX_RX_func.c **** * Copyright 2008-2015, Cypress Semiconductor Corporation.  All rights reserved.
  19:Generated_Source\PSoC5/CAN_TX_RX_func.c **** * You may use this file only in accordance with the license, terms, conditions,
  20:Generated_Source\PSoC5/CAN_TX_RX_func.c **** * disclaimers, and limitations in the end user license agreement accompanying
  21:Generated_Source\PSoC5/CAN_TX_RX_func.c **** * the software package with which this file was provided.
  22:Generated_Source\PSoC5/CAN_TX_RX_func.c **** *******************************************************************************/
  23:Generated_Source\PSoC5/CAN_TX_RX_func.c **** 
  24:Generated_Source\PSoC5/CAN_TX_RX_func.c **** #include "CAN.h"
  25:Generated_Source\PSoC5/CAN_TX_RX_func.c **** #include "cyapicallbacks.h"
  26:Generated_Source\PSoC5/CAN_TX_RX_func.c **** 
  27:Generated_Source\PSoC5/CAN_TX_RX_func.c **** /* `#START TX_RX_FUNCTION` */
  28:Generated_Source\PSoC5/CAN_TX_RX_func.c **** 
  29:Generated_Source\PSoC5/CAN_TX_RX_func.c **** //BMS Varialbes
  30:Generated_Source\PSoC5/CAN_TX_RX_func.c **** extern uint8_t bms_temp;
ARM GAS  C:\Users\leoja\AppData\Local\Temp\cctKjm6z.s 			page 2


  31:Generated_Source\PSoC5/CAN_TX_RX_func.c **** extern uint16_t bms_status;
  32:Generated_Source\PSoC5/CAN_TX_RX_func.c **** extern uint8_t bms_soc;
  33:Generated_Source\PSoC5/CAN_TX_RX_func.c **** extern uint16_t bms_voltage;
  34:Generated_Source\PSoC5/CAN_TX_RX_func.c **** 
  35:Generated_Source\PSoC5/CAN_TX_RX_func.c **** //MC varialbes
  36:Generated_Source\PSoC5/CAN_TX_RX_func.c **** extern int16_t mc_voltage;
  37:Generated_Source\PSoC5/CAN_TX_RX_func.c **** extern uint8_t mc_vsm_state;
  38:Generated_Source\PSoC5/CAN_TX_RX_func.c **** extern uint8_t mc_discharge_state;
  39:Generated_Source\PSoC5/CAN_TX_RX_func.c **** extern uint16_t mc_post_faults;
  40:Generated_Source\PSoC5/CAN_TX_RX_func.c **** extern uint16_t mc_run_faults;
  41:Generated_Source\PSoC5/CAN_TX_RX_func.c **** 
  42:Generated_Source\PSoC5/CAN_TX_RX_func.c **** //VCU variables
  43:Generated_Source\PSoC5/CAN_TX_RX_func.c **** extern uint8_t enable_commands;
  44:Generated_Source\PSoC5/CAN_TX_RX_func.c **** extern uint8_t hv_requested;
  45:Generated_Source\PSoC5/CAN_TX_RX_func.c **** extern uint8_t vcu_state;
  46:Generated_Source\PSoC5/CAN_TX_RX_func.c **** extern uint8_t vcu_attached;
  47:Generated_Source\PSoC5/CAN_TX_RX_func.c **** 
  48:Generated_Source\PSoC5/CAN_TX_RX_func.c **** //charger variables
  49:Generated_Source\PSoC5/CAN_TX_RX_func.c **** extern uint8_t charger_attached;
  50:Generated_Source\PSoC5/CAN_TX_RX_func.c **** extern uint8_t charger_status;
  51:Generated_Source\PSoC5/CAN_TX_RX_func.c **** 
  52:Generated_Source\PSoC5/CAN_TX_RX_func.c **** //loop counters
  53:Generated_Source\PSoC5/CAN_TX_RX_func.c **** extern uint16_t loops_since_vcu_message;
  54:Generated_Source\PSoC5/CAN_TX_RX_func.c **** extern uint16_t loops_since_bms_message;
  55:Generated_Source\PSoC5/CAN_TX_RX_func.c **** extern uint16_t loops_since_mc_message;
  56:Generated_Source\PSoC5/CAN_TX_RX_func.c **** extern uint16_t loops_since_charger_message;
  57:Generated_Source\PSoC5/CAN_TX_RX_func.c **** 
  58:Generated_Source\PSoC5/CAN_TX_RX_func.c **** 
  59:Generated_Source\PSoC5/CAN_TX_RX_func.c **** /* `#END` */
  60:Generated_Source\PSoC5/CAN_TX_RX_func.c **** 
  61:Generated_Source\PSoC5/CAN_TX_RX_func.c **** 
  62:Generated_Source\PSoC5/CAN_TX_RX_func.c **** /*******************************************************************************
  63:Generated_Source\PSoC5/CAN_TX_RX_func.c **** * FUNCTION NAME:   CAN_SendMsg
  64:Generated_Source\PSoC5/CAN_TX_RX_func.c **** ********************************************************************************
  65:Generated_Source\PSoC5/CAN_TX_RX_func.c **** *
  66:Generated_Source\PSoC5/CAN_TX_RX_func.c **** * Summary:
  67:Generated_Source\PSoC5/CAN_TX_RX_func.c **** *  This function is Send Message from one of Basic mailboxes. The function loops
  68:Generated_Source\PSoC5/CAN_TX_RX_func.c **** *  through the transmit message buffer designed as Basic CAN mailboxes for the
  69:Generated_Source\PSoC5/CAN_TX_RX_func.c **** *  first free available and sends from it. The number of retries is limited.
  70:Generated_Source\PSoC5/CAN_TX_RX_func.c **** *
  71:Generated_Source\PSoC5/CAN_TX_RX_func.c **** * Parameters:
  72:Generated_Source\PSoC5/CAN_TX_RX_func.c **** *  message: The pointer to a structure that contains all required data to send
  73:Generated_Source\PSoC5/CAN_TX_RX_func.c **** *           messages.
  74:Generated_Source\PSoC5/CAN_TX_RX_func.c **** *
  75:Generated_Source\PSoC5/CAN_TX_RX_func.c **** * Return:
  76:Generated_Source\PSoC5/CAN_TX_RX_func.c **** *  Indication if message has been sent.
  77:Generated_Source\PSoC5/CAN_TX_RX_func.c **** *   Define                             Description
  78:Generated_Source\PSoC5/CAN_TX_RX_func.c **** *    CYRET_SUCCESS                      The function passed successfully
  79:Generated_Source\PSoC5/CAN_TX_RX_func.c **** *    CAN_FAIL              The function failed
  80:Generated_Source\PSoC5/CAN_TX_RX_func.c **** *
  81:Generated_Source\PSoC5/CAN_TX_RX_func.c **** *******************************************************************************/
  82:Generated_Source\PSoC5/CAN_TX_RX_func.c **** uint8 CAN_SendMsg(const CAN_TX_MSG *message) 
  83:Generated_Source\PSoC5/CAN_TX_RX_func.c **** {
  28              		.loc 1 83 0
  29              		.cfi_startproc
  30              		@ args = 0, pretend = 0, frame = 0
  31              		@ frame_needed = 0, uses_anonymous_args = 0
ARM GAS  C:\Users\leoja\AppData\Local\Temp\cctKjm6z.s 			page 3


  32              	.LVL0:
  33 0000 F0B5     		push	{r4, r5, r6, r7, lr}
  34              		.cfi_def_cfa_offset 20
  35              		.cfi_offset 4, -20
  36              		.cfi_offset 5, -16
  37              		.cfi_offset 6, -12
  38              		.cfi_offset 7, -8
  39              		.cfi_offset 14, -4
  40              	.LVL1:
  84:Generated_Source\PSoC5/CAN_TX_RX_func.c ****     uint8 i, j, shift;
  85:Generated_Source\PSoC5/CAN_TX_RX_func.c ****     uint8 retry = 0u;
  86:Generated_Source\PSoC5/CAN_TX_RX_func.c ****     uint8 result = CAN_FAIL;
  41              		.loc 1 86 0
  42 0002 0121     		movs	r1, #1
  85:Generated_Source\PSoC5/CAN_TX_RX_func.c ****     uint8 result = CAN_FAIL;
  43              		.loc 1 85 0
  44 0004 0026     		movs	r6, #0
  87:Generated_Source\PSoC5/CAN_TX_RX_func.c ****     uint32 regTemp;
  88:Generated_Source\PSoC5/CAN_TX_RX_func.c **** 
  89:Generated_Source\PSoC5/CAN_TX_RX_func.c ****     while (retry < CAN_RETRY_NUMBER)
  45              		.loc 1 89 0
  46 0006 5DE0     		b	.L2
  47              	.LVL2:
  48              	.L16:
  90:Generated_Source\PSoC5/CAN_TX_RX_func.c ****     {
  91:Generated_Source\PSoC5/CAN_TX_RX_func.c ****         shift = 1u;    /* Start from first mailbox */
  92:Generated_Source\PSoC5/CAN_TX_RX_func.c ****         for (i = 0u; i < CAN_NUMBER_OF_TX_MAILBOXES; i++)
  93:Generated_Source\PSoC5/CAN_TX_RX_func.c ****         {
  94:Generated_Source\PSoC5/CAN_TX_RX_func.c ****             /* Find Basic TX mailboxes */
  95:Generated_Source\PSoC5/CAN_TX_RX_func.c ****             if ((CAN_TX_MAILBOX_TYPE & shift) == 0u)
  49              		.loc 1 95 0
  50 0008 17F0030F 		tst	r7, #3
  51 000c 4DD1     		bne	.L3
  96:Generated_Source\PSoC5/CAN_TX_RX_func.c ****             {
  97:Generated_Source\PSoC5/CAN_TX_RX_func.c ****                 /* Find free mailbox */
  98:Generated_Source\PSoC5/CAN_TX_RX_func.c ****                 #if (CY_PSOC3 || CY_PSOC5)
  99:Generated_Source\PSoC5/CAN_TX_RX_func.c ****                     if ((CAN_BUF_SR_REG.byte[2] & shift) == 0u)
  52              		.loc 1 99 0
  53 000e 2F4B     		ldr	r3, .L22
  54 0010 9B78     		ldrb	r3, [r3, #2]	@ zero_extendqisi2
  55 0012 3B42     		tst	r3, r7
  56 0014 49D1     		bne	.L3
  57              	.LVL3:
 100:Generated_Source\PSoC5/CAN_TX_RX_func.c ****                 #else  /* CY_PSOC4 */
 101:Generated_Source\PSoC5/CAN_TX_RX_func.c ****                     if ((CAN_BUF_SR_REG &
 102:Generated_Source\PSoC5/CAN_TX_RX_func.c ****                         (uint32) ((uint32) shift << CAN_TWO_BYTE_OFFSET)) == 0u)
 103:Generated_Source\PSoC5/CAN_TX_RX_func.c ****                 #endif /* CY_PSOC3 || CY_PSOC5 */
 104:Generated_Source\PSoC5/CAN_TX_RX_func.c ****                     {
 105:Generated_Source\PSoC5/CAN_TX_RX_func.c ****                         regTemp = 0u;
 106:Generated_Source\PSoC5/CAN_TX_RX_func.c **** 
 107:Generated_Source\PSoC5/CAN_TX_RX_func.c ****                         /* Set message parameters */
 108:Generated_Source\PSoC5/CAN_TX_RX_func.c ****                         if (message->rtr != CAN_STANDARD_MESSAGE)
  58              		.loc 1 108 0
  59 0016 0379     		ldrb	r3, [r0, #4]	@ zero_extendqisi2
  60 0018 0BB1     		cbz	r3, .L4
 109:Generated_Source\PSoC5/CAN_TX_RX_func.c ****                         {
 110:Generated_Source\PSoC5/CAN_TX_RX_func.c ****                             regTemp = CAN_TX_RTR_MASK;    /* RTR message Enable */
ARM GAS  C:\Users\leoja\AppData\Local\Temp\cctKjm6z.s 			page 4


  61              		.loc 1 110 0
  62 001a 4FF40013 		mov	r3, #2097152
  63              	.L4:
  64              	.LVL4:
 111:Generated_Source\PSoC5/CAN_TX_RX_func.c ****                         }
 112:Generated_Source\PSoC5/CAN_TX_RX_func.c **** 
 113:Generated_Source\PSoC5/CAN_TX_RX_func.c ****                         if (message->ide == CAN_STANDARD_MESSAGE)
  65              		.loc 1 113 0
  66 001e 4179     		ldrb	r1, [r0, #5]	@ zero_extendqisi2
  67              	.LVL5:
  68 0020 31B9     		cbnz	r1, .L5
 114:Generated_Source\PSoC5/CAN_TX_RX_func.c ****                         {
 115:Generated_Source\PSoC5/CAN_TX_RX_func.c ****                             CAN_SET_TX_ID_STANDARD_MSG(i, message->id);
  69              		.loc 1 115 0
  70 0022 2B49     		ldr	r1, .L22+4
  71 0024 01EB0211 		add	r1, r1, r2, lsl #4
  72 0028 0468     		ldr	r4, [r0]
  73 002a 6405     		lsls	r4, r4, #21
  74 002c 4C60     		str	r4, [r1, #4]
  75 002e 07E0     		b	.L6
  76              	.L5:
 116:Generated_Source\PSoC5/CAN_TX_RX_func.c ****                         }
 117:Generated_Source\PSoC5/CAN_TX_RX_func.c ****                         else
 118:Generated_Source\PSoC5/CAN_TX_RX_func.c ****                         {
 119:Generated_Source\PSoC5/CAN_TX_RX_func.c ****                             regTemp |= CAN_TX_IDE_MASK;
  77              		.loc 1 119 0
  78 0030 43F48013 		orr	r3, r3, #1048576
  79              	.LVL6:
 120:Generated_Source\PSoC5/CAN_TX_RX_func.c ****                             CAN_SET_TX_ID_EXTENDED_MSG(i, message->id);
  80              		.loc 1 120 0
  81 0034 2649     		ldr	r1, .L22+4
  82 0036 01EB0211 		add	r1, r1, r2, lsl #4
  83 003a 0468     		ldr	r4, [r0]
  84 003c E400     		lsls	r4, r4, #3
  85 003e 4C60     		str	r4, [r1, #4]
  86              	.L6:
 121:Generated_Source\PSoC5/CAN_TX_RX_func.c ****                         }
 122:Generated_Source\PSoC5/CAN_TX_RX_func.c **** 
 123:Generated_Source\PSoC5/CAN_TX_RX_func.c ****                         if (message->dlc < CAN_TX_DLC_MAX_VALUE)
  87              		.loc 1 123 0
  88 0040 90F806E0 		ldrb	lr, [r0, #6]	@ zero_extendqisi2
  89 0044 BEF1070F 		cmp	lr, #7
  90 0048 02D8     		bhi	.L7
 124:Generated_Source\PSoC5/CAN_TX_RX_func.c ****                         {
 125:Generated_Source\PSoC5/CAN_TX_RX_func.c ****                             regTemp |= ((uint32) message->dlc) << CAN_TWO_BYTE_OFFSET;
  91              		.loc 1 125 0
  92 004a 43EA0E4E 		orr	lr, r3, lr, lsl #16
  93              	.LVL7:
  94 004e 01E0     		b	.L8
  95              	.LVL8:
  96              	.L7:
 126:Generated_Source\PSoC5/CAN_TX_RX_func.c ****                         }
 127:Generated_Source\PSoC5/CAN_TX_RX_func.c ****                         else
 128:Generated_Source\PSoC5/CAN_TX_RX_func.c ****                         {
 129:Generated_Source\PSoC5/CAN_TX_RX_func.c ****                             regTemp |= CAN_TX_DLC_UPPER_VALUE;
  97              		.loc 1 129 0
  98 0050 43F4002E 		orr	lr, r3, #524288
ARM GAS  C:\Users\leoja\AppData\Local\Temp\cctKjm6z.s 			page 5


  99              	.LVL9:
 100              	.L8:
 130:Generated_Source\PSoC5/CAN_TX_RX_func.c ****                         }
 131:Generated_Source\PSoC5/CAN_TX_RX_func.c **** 
 132:Generated_Source\PSoC5/CAN_TX_RX_func.c ****                         if (message->irq != CAN_TRANSMIT_INT_DISABLE)
 101              		.loc 1 132 0
 102 0054 C379     		ldrb	r3, [r0, #7]	@ zero_extendqisi2
 103 0056 0BB1     		cbz	r3, .L9
 133:Generated_Source\PSoC5/CAN_TX_RX_func.c ****                         {
 134:Generated_Source\PSoC5/CAN_TX_RX_func.c ****                             regTemp |= CAN_TX_INT_ENABLE_MASK;    /* Transmit Interrupt Enable */
 104              		.loc 1 134 0
 105 0058 4EF0040E 		orr	lr, lr, #4
 106              	.LVL10:
 107              	.L9:
 135:Generated_Source\PSoC5/CAN_TX_RX_func.c ****                         }
 136:Generated_Source\PSoC5/CAN_TX_RX_func.c **** 
 137:Generated_Source\PSoC5/CAN_TX_RX_func.c ****                         for (j = 0u; (j < message->dlc) && (j < CAN_TX_DLC_MAX_VALUE); j++)
 108              		.loc 1 137 0
 109 005c 0023     		movs	r3, #0
 110 005e 0FE0     		b	.L10
 111              	.LVL11:
 112              	.L14:
 138:Generated_Source\PSoC5/CAN_TX_RX_func.c ****                         {
 139:Generated_Source\PSoC5/CAN_TX_RX_func.c ****                             #if (CY_PSOC3 || CY_PSOC5)
 140:Generated_Source\PSoC5/CAN_TX_RX_func.c ****                                 CAN_TX_DATA_BYTE(i, j) = message->msg->byte[j];
 113              		.loc 1 140 0
 114 0060 1B49     		ldr	r1, .L22+4
 115 0062 01EB0214 		add	r4, r1, r2, lsl #4
 116 0066 032B     		cmp	r3, #3
 117 0068 02D9     		bls	.L11
 118              		.loc 1 140 0 is_stmt 0 discriminator 1
 119 006a C3F10B01 		rsb	r1, r3, #11
 120 006e 01E0     		b	.L12
 121              	.L11:
 122              		.loc 1 140 0 discriminator 2
 123 0070 C3F10301 		rsb	r1, r3, #3
 124              	.L12:
 125              		.loc 1 140 0 discriminator 4
 126 0074 8568     		ldr	r5, [r0, #8]
 127 0076 ED5C     		ldrb	r5, [r5, r3]	@ zero_extendqisi2
 128 0078 2144     		add	r1, r1, r4
 129 007a 0D72     		strb	r5, [r1, #8]
 137:Generated_Source\PSoC5/CAN_TX_RX_func.c ****                         {
 130              		.loc 1 137 0 is_stmt 1 discriminator 4
 131 007c 0133     		adds	r3, r3, #1
 132              	.LVL12:
 133 007e DBB2     		uxtb	r3, r3
 134              	.LVL13:
 135              	.L10:
 137:Generated_Source\PSoC5/CAN_TX_RX_func.c ****                         {
 136              		.loc 1 137 0 is_stmt 0 discriminator 2
 137 0080 8179     		ldrb	r1, [r0, #6]	@ zero_extendqisi2
 138 0082 8B42     		cmp	r3, r1
 139 0084 01D2     		bcs	.L13
 137:Generated_Source\PSoC5/CAN_TX_RX_func.c ****                         {
 140              		.loc 1 137 0 discriminator 3
 141 0086 072B     		cmp	r3, #7
ARM GAS  C:\Users\leoja\AppData\Local\Temp\cctKjm6z.s 			page 6


 142 0088 EAD9     		bls	.L14
 143              	.L13:
 141:Generated_Source\PSoC5/CAN_TX_RX_func.c ****                             #else /* CY_PSOC4 */
 142:Generated_Source\PSoC5/CAN_TX_RX_func.c ****                                 CAN_TX_DATA_BYTE(i, j, message->msg->byte[j]);
 143:Generated_Source\PSoC5/CAN_TX_RX_func.c ****                             #endif /* CY_PSOC3 || CY_PSOC5 */
 144:Generated_Source\PSoC5/CAN_TX_RX_func.c ****                         }
 145:Generated_Source\PSoC5/CAN_TX_RX_func.c **** 
 146:Generated_Source\PSoC5/CAN_TX_RX_func.c ****                         /* Disable isr */
 147:Generated_Source\PSoC5/CAN_TX_RX_func.c ****     CyIntDisable(CAN_ISR_NUMBER);
 144              		.loc 1 147 0 is_stmt 1
 145 008a 4FF48034 		mov	r4, #65536
 146 008e 114B     		ldr	r3, .L22+8
 147              	.LVL14:
 148 0090 1C60     		str	r4, [r3]
 148:Generated_Source\PSoC5/CAN_TX_RX_func.c **** 
 149:Generated_Source\PSoC5/CAN_TX_RX_func.c ****                         /* WPN[23] and WPN[3] set to 1 for write to CAN Control reg */
 150:Generated_Source\PSoC5/CAN_TX_RX_func.c ****                         CY_SET_REG32(CAN_TX_CMD_PTR(i), (regTemp | CAN_TX_WPN_SET));
 149              		.loc 1 150 0
 150 0092 1101     		lsls	r1, r2, #4
 151 0094 0E4D     		ldr	r5, .L22+4
 152 0096 4EF40003 		orr	r3, lr, #8388608
 153 009a 43F00803 		orr	r3, r3, #8
 154 009e 4B51     		str	r3, [r1, r5]
 151:Generated_Source\PSoC5/CAN_TX_RX_func.c **** 
 152:Generated_Source\PSoC5/CAN_TX_RX_func.c ****                         #if (CY_PSOC3 || CY_PSOC5)
 153:Generated_Source\PSoC5/CAN_TX_RX_func.c ****                             CY_SET_REG32(CAN_TX_CMD_PTR(i), CAN_SEND_MESSAGE);
 155              		.loc 1 153 0
 156 00a0 0123     		movs	r3, #1
 157 00a2 4B51     		str	r3, [r1, r5]
 154:Generated_Source\PSoC5/CAN_TX_RX_func.c ****                         #else /* CY_PSOC4 */
 155:Generated_Source\PSoC5/CAN_TX_RX_func.c ****                             if (message->sst != CAN_STANDARD_MESSAGE)
 156:Generated_Source\PSoC5/CAN_TX_RX_func.c ****                             {
 157:Generated_Source\PSoC5/CAN_TX_RX_func.c ****                                 /* Single Shot Transmission */
 158:Generated_Source\PSoC5/CAN_TX_RX_func.c ****                                 CAN_TX_CMD_REG(i) |= CAN_SEND_MESSAGE |
 159:Generated_Source\PSoC5/CAN_TX_RX_func.c ****                                 CAN_TX_ABORT_MASK;
 160:Generated_Source\PSoC5/CAN_TX_RX_func.c ****                             }
 161:Generated_Source\PSoC5/CAN_TX_RX_func.c ****                             else
 162:Generated_Source\PSoC5/CAN_TX_RX_func.c ****                             {
 163:Generated_Source\PSoC5/CAN_TX_RX_func.c ****                                 CAN_TX_CMD_REG(i) |= CAN_SEND_MESSAGE;
 164:Generated_Source\PSoC5/CAN_TX_RX_func.c ****                             }
 165:Generated_Source\PSoC5/CAN_TX_RX_func.c ****                         #endif /* CY_PSOC3 || CY_PSOC5 */
 166:Generated_Source\PSoC5/CAN_TX_RX_func.c **** 
 167:Generated_Source\PSoC5/CAN_TX_RX_func.c ****                         /* Enable isr */
 168:Generated_Source\PSoC5/CAN_TX_RX_func.c ****     CyIntEnable(CAN_ISR_NUMBER);
 158              		.loc 1 168 0
 159 00a4 0C4B     		ldr	r3, .L22+12
 160 00a6 1C60     		str	r4, [r3]
 161              	.LVL15:
 169:Generated_Source\PSoC5/CAN_TX_RX_func.c **** 
 170:Generated_Source\PSoC5/CAN_TX_RX_func.c ****                         result = CYRET_SUCCESS;
 162              		.loc 1 170 0
 163 00a8 0021     		movs	r1, #0
 164              	.LVL16:
 165              	.L3:
 171:Generated_Source\PSoC5/CAN_TX_RX_func.c ****                     }
 172:Generated_Source\PSoC5/CAN_TX_RX_func.c ****             }
 173:Generated_Source\PSoC5/CAN_TX_RX_func.c ****             shift <<= 1u;
ARM GAS  C:\Users\leoja\AppData\Local\Temp\cctKjm6z.s 			page 7


 166              		.loc 1 173 0
 167 00aa 7B00     		lsls	r3, r7, #1
 168 00ac DFB2     		uxtb	r7, r3
 169              	.LVL17:
 174:Generated_Source\PSoC5/CAN_TX_RX_func.c ****             if (result == CYRET_SUCCESS)
 170              		.loc 1 174 0
 171 00ae 31B1     		cbz	r1, .L15
  92:Generated_Source\PSoC5/CAN_TX_RX_func.c ****         {
 172              		.loc 1 92 0 discriminator 2
 173 00b0 0132     		adds	r2, r2, #1
 174              	.LVL18:
 175 00b2 D2B2     		uxtb	r2, r2
 176              	.LVL19:
 177 00b4 01E0     		b	.L18
 178              	.LVL20:
 179              	.L20:
 180 00b6 0127     		movs	r7, #1
 181 00b8 0022     		movs	r2, #0
 182              	.L18:
 183              	.LVL21:
  92:Generated_Source\PSoC5/CAN_TX_RX_func.c ****         {
 184              		.loc 1 92 0 is_stmt 0 discriminator 1
 185 00ba 072A     		cmp	r2, #7
 186 00bc A4D9     		bls	.L16
 187              	.L15:
 175:Generated_Source\PSoC5/CAN_TX_RX_func.c ****             {
 176:Generated_Source\PSoC5/CAN_TX_RX_func.c ****                 break;
 177:Generated_Source\PSoC5/CAN_TX_RX_func.c ****             }
 178:Generated_Source\PSoC5/CAN_TX_RX_func.c ****         }
 179:Generated_Source\PSoC5/CAN_TX_RX_func.c ****         if (result == CYRET_SUCCESS)
 188              		.loc 1 179 0 is_stmt 1
 189 00be 19B1     		cbz	r1, .L17
 180:Generated_Source\PSoC5/CAN_TX_RX_func.c ****         {
 181:Generated_Source\PSoC5/CAN_TX_RX_func.c ****             break;
 182:Generated_Source\PSoC5/CAN_TX_RX_func.c ****         }
 183:Generated_Source\PSoC5/CAN_TX_RX_func.c ****         else
 184:Generated_Source\PSoC5/CAN_TX_RX_func.c ****         {
 185:Generated_Source\PSoC5/CAN_TX_RX_func.c ****             retry++;
 190              		.loc 1 185 0
 191 00c0 0136     		adds	r6, r6, #1
 192              	.LVL22:
 193 00c2 F6B2     		uxtb	r6, r6
 194              	.LVL23:
 195              	.L2:
  89:Generated_Source\PSoC5/CAN_TX_RX_func.c ****     {
 196              		.loc 1 89 0
 197 00c4 022E     		cmp	r6, #2
 198 00c6 F6D9     		bls	.L20
 199              	.L17:
 186:Generated_Source\PSoC5/CAN_TX_RX_func.c ****         }
 187:Generated_Source\PSoC5/CAN_TX_RX_func.c ****     }
 188:Generated_Source\PSoC5/CAN_TX_RX_func.c **** 
 189:Generated_Source\PSoC5/CAN_TX_RX_func.c ****     return (result);
 190:Generated_Source\PSoC5/CAN_TX_RX_func.c **** }
 200              		.loc 1 190 0
 201 00c8 0846     		mov	r0, r1
 202              	.LVL24:
ARM GAS  C:\Users\leoja\AppData\Local\Temp\cctKjm6z.s 			page 8


 203 00ca F0BD     		pop	{r4, r5, r6, r7, pc}
 204              	.LVL25:
 205              	.L23:
 206              		.align	2
 207              	.L22:
 208 00cc 08A00040 		.word	1073782792
 209 00d0 20A00040 		.word	1073782816
 210 00d4 80E100E0 		.word	-536813184
 211 00d8 00E100E0 		.word	-536813312
 212              		.cfi_endproc
 213              	.LFE0:
 214              		.size	CAN_SendMsg, .-CAN_SendMsg
 215              		.section	.text.CAN_TxCancel,"ax",%progbits
 216              		.align	2
 217              		.global	CAN_TxCancel
 218              		.thumb
 219              		.thumb_func
 220              		.type	CAN_TxCancel, %function
 221              	CAN_TxCancel:
 222              	.LFB1:
 191:Generated_Source\PSoC5/CAN_TX_RX_func.c **** 
 192:Generated_Source\PSoC5/CAN_TX_RX_func.c **** 
 193:Generated_Source\PSoC5/CAN_TX_RX_func.c **** /*******************************************************************************
 194:Generated_Source\PSoC5/CAN_TX_RX_func.c **** * FUNCTION NAME:   CAN_TxCancel
 195:Generated_Source\PSoC5/CAN_TX_RX_func.c **** ********************************************************************************
 196:Generated_Source\PSoC5/CAN_TX_RX_func.c **** *
 197:Generated_Source\PSoC5/CAN_TX_RX_func.c **** * Summary:
 198:Generated_Source\PSoC5/CAN_TX_RX_func.c **** *  This function cancels transmission of a message that has been queued to be
 199:Generated_Source\PSoC5/CAN_TX_RX_func.c **** *  transmitted. Values between 0 and 7 are valid.
 200:Generated_Source\PSoC5/CAN_TX_RX_func.c **** *
 201:Generated_Source\PSoC5/CAN_TX_RX_func.c **** * Parameters:
 202:Generated_Source\PSoC5/CAN_TX_RX_func.c **** *  bufferId: The mailbox number.
 203:Generated_Source\PSoC5/CAN_TX_RX_func.c **** *
 204:Generated_Source\PSoC5/CAN_TX_RX_func.c **** * Return:
 205:Generated_Source\PSoC5/CAN_TX_RX_func.c **** *  None.
 206:Generated_Source\PSoC5/CAN_TX_RX_func.c **** *
 207:Generated_Source\PSoC5/CAN_TX_RX_func.c **** *******************************************************************************/
 208:Generated_Source\PSoC5/CAN_TX_RX_func.c **** void CAN_TxCancel(uint8 bufferId) 
 209:Generated_Source\PSoC5/CAN_TX_RX_func.c **** {
 223              		.loc 1 209 0
 224              		.cfi_startproc
 225              		@ args = 0, pretend = 0, frame = 0
 226              		@ frame_needed = 0, uses_anonymous_args = 0
 227              		@ link register save eliminated.
 228              	.LVL26:
 210:Generated_Source\PSoC5/CAN_TX_RX_func.c ****     if (bufferId < CAN_NUMBER_OF_TX_MAILBOXES)
 229              		.loc 1 210 0
 230 0000 0728     		cmp	r0, #7
 231 0002 07D8     		bhi	.L24
 211:Generated_Source\PSoC5/CAN_TX_RX_func.c ****     {
 212:Generated_Source\PSoC5/CAN_TX_RX_func.c ****         CAN_TX_ABORT_MESSAGE(bufferId);
 232              		.loc 1 212 0
 233 0004 0001     		lsls	r0, r0, #4
 234              	.LVL27:
 235 0006 044A     		ldr	r2, .L26
 236 0008 835C     		ldrb	r3, [r0, r2]	@ zero_extendqisi2
 237 000a 03F0FC03 		and	r3, r3, #252
ARM GAS  C:\Users\leoja\AppData\Local\Temp\cctKjm6z.s 			page 9


 238 000e 43F00203 		orr	r3, r3, #2
 239 0012 8354     		strb	r3, [r0, r2]
 240              	.L24:
 241 0014 7047     		bx	lr
 242              	.L27:
 243 0016 00BF     		.align	2
 244              	.L26:
 245 0018 20A00040 		.word	1073782816
 246              		.cfi_endproc
 247              	.LFE1:
 248              		.size	CAN_TxCancel, .-CAN_TxCancel
 249              		.section	.text.CAN_SendMsgPEI_CHARGER,"ax",%progbits
 250              		.align	2
 251              		.global	CAN_SendMsgPEI_CHARGER
 252              		.thumb
 253              		.thumb_func
 254              		.type	CAN_SendMsgPEI_CHARGER, %function
 255              	CAN_SendMsgPEI_CHARGER:
 256              	.LFB2:
 213:Generated_Source\PSoC5/CAN_TX_RX_func.c ****     }
 214:Generated_Source\PSoC5/CAN_TX_RX_func.c **** }
 215:Generated_Source\PSoC5/CAN_TX_RX_func.c **** 
 216:Generated_Source\PSoC5/CAN_TX_RX_func.c **** 
 217:Generated_Source\PSoC5/CAN_TX_RX_func.c **** #if (CAN_TX0_FUNC_ENABLE)
 218:Generated_Source\PSoC5/CAN_TX_RX_func.c ****     /*******************************************************************************
 219:Generated_Source\PSoC5/CAN_TX_RX_func.c ****     * FUNCTION NAME:   CAN_SendMsgPEI_CHARGER
 220:Generated_Source\PSoC5/CAN_TX_RX_func.c ****     ********************************************************************************
 221:Generated_Source\PSoC5/CAN_TX_RX_func.c ****     *
 222:Generated_Source\PSoC5/CAN_TX_RX_func.c ****     * Summary:
 223:Generated_Source\PSoC5/CAN_TX_RX_func.c ****     *  This function is the entry point to Transmit Message 0. The function checks
 224:Generated_Source\PSoC5/CAN_TX_RX_func.c ****     *  if mailbox 0 doesn't already have un-transmitted messages waiting for
 225:Generated_Source\PSoC5/CAN_TX_RX_func.c ****     *  arbitration. If not initiate transmission of the message.
 226:Generated_Source\PSoC5/CAN_TX_RX_func.c ****     *  Generated only for the Transmit mailbox designed as Full.
 227:Generated_Source\PSoC5/CAN_TX_RX_func.c ****     *
 228:Generated_Source\PSoC5/CAN_TX_RX_func.c ****     * Parameters:
 229:Generated_Source\PSoC5/CAN_TX_RX_func.c ****     *  None.
 230:Generated_Source\PSoC5/CAN_TX_RX_func.c ****     *
 231:Generated_Source\PSoC5/CAN_TX_RX_func.c ****     * Return:
 232:Generated_Source\PSoC5/CAN_TX_RX_func.c ****     *  Indication if Message has been sent.
 233:Generated_Source\PSoC5/CAN_TX_RX_func.c ****     *   Define                             Description
 234:Generated_Source\PSoC5/CAN_TX_RX_func.c ****     *    CYRET_SUCCESS                      The function passed successfully
 235:Generated_Source\PSoC5/CAN_TX_RX_func.c ****     *    CAN_FAIL              The function failed
 236:Generated_Source\PSoC5/CAN_TX_RX_func.c ****     *
 237:Generated_Source\PSoC5/CAN_TX_RX_func.c ****     *******************************************************************************/
 238:Generated_Source\PSoC5/CAN_TX_RX_func.c ****     uint8 CAN_SendMsgPEI_CHARGER(void) 
 239:Generated_Source\PSoC5/CAN_TX_RX_func.c ****     {
 257              		.loc 1 239 0
 258              		.cfi_startproc
 259              		@ args = 0, pretend = 0, frame = 0
 260              		@ frame_needed = 0, uses_anonymous_args = 0
 261              		@ link register save eliminated.
 262              	.LVL28:
 240:Generated_Source\PSoC5/CAN_TX_RX_func.c ****         uint8 result = CYRET_SUCCESS;
 241:Generated_Source\PSoC5/CAN_TX_RX_func.c **** 
 242:Generated_Source\PSoC5/CAN_TX_RX_func.c ****         #if (CY_PSOC3 || CY_PSOC5)
 243:Generated_Source\PSoC5/CAN_TX_RX_func.c ****             if ((CAN_TX[0u].txcmd.byte[0u] & CAN_TX_REQUEST_PENDING) != 0u)
 263              		.loc 1 243 0
ARM GAS  C:\Users\leoja\AppData\Local\Temp\cctKjm6z.s 			page 10


 264 0000 064B     		ldr	r3, .L31
 265 0002 1B78     		ldrb	r3, [r3]	@ zero_extendqisi2
 266 0004 13F0010F 		tst	r3, #1
 267 0008 06D1     		bne	.L30
 244:Generated_Source\PSoC5/CAN_TX_RX_func.c ****         #else  /* CY_PSOC4 */
 245:Generated_Source\PSoC5/CAN_TX_RX_func.c ****             if ((CAN_TX_CMD_REG(0u) & CAN_TX_REQUEST_PENDING) != 0u)
 246:Generated_Source\PSoC5/CAN_TX_RX_func.c ****         #endif /* CY_PSOC3 || CY_PSOC5 */
 247:Generated_Source\PSoC5/CAN_TX_RX_func.c ****             {
 248:Generated_Source\PSoC5/CAN_TX_RX_func.c ****                 result = CAN_FAIL;
 249:Generated_Source\PSoC5/CAN_TX_RX_func.c ****             }
 250:Generated_Source\PSoC5/CAN_TX_RX_func.c ****             else
 251:Generated_Source\PSoC5/CAN_TX_RX_func.c ****             {
 252:Generated_Source\PSoC5/CAN_TX_RX_func.c ****                 /* `#START MESSAGE_PEI_CHARGER_TRASMITTED` */
 253:Generated_Source\PSoC5/CAN_TX_RX_func.c **** 
 254:Generated_Source\PSoC5/CAN_TX_RX_func.c ****                 /* `#END` */
 255:Generated_Source\PSoC5/CAN_TX_RX_func.c **** 
 256:Generated_Source\PSoC5/CAN_TX_RX_func.c ****                 #ifdef CAN_SEND_MSG_PEI_CHARGER_CALLBACK
 257:Generated_Source\PSoC5/CAN_TX_RX_func.c ****                     CAN_SendMsg_PEI_CHARGER_Callback();
 258:Generated_Source\PSoC5/CAN_TX_RX_func.c ****                 #endif /* CAN_SEND_MSG_PEI_CHARGER_CALLBACK */
 259:Generated_Source\PSoC5/CAN_TX_RX_func.c **** 
 260:Generated_Source\PSoC5/CAN_TX_RX_func.c ****                 CY_SET_REG32(CAN_TX_CMD_PTR(0u),
 268              		.loc 1 260 0
 269 000a 044A     		ldr	r2, .L31
 270 000c 1368     		ldr	r3, [r2]
 271 000e 43F00103 		orr	r3, r3, #1
 272 0012 1360     		str	r3, [r2]
 240:Generated_Source\PSoC5/CAN_TX_RX_func.c ****         uint8 result = CYRET_SUCCESS;
 273              		.loc 1 240 0
 274 0014 0020     		movs	r0, #0
 275 0016 7047     		bx	lr
 276              	.L30:
 248:Generated_Source\PSoC5/CAN_TX_RX_func.c ****             }
 277              		.loc 1 248 0
 278 0018 0120     		movs	r0, #1
 279              	.LVL29:
 261:Generated_Source\PSoC5/CAN_TX_RX_func.c ****                 CY_GET_REG32(CAN_TX_CMD_PTR(0u)) | CAN_SEND_MESSAGE);
 262:Generated_Source\PSoC5/CAN_TX_RX_func.c ****             }
 263:Generated_Source\PSoC5/CAN_TX_RX_func.c **** 
 264:Generated_Source\PSoC5/CAN_TX_RX_func.c ****         return (result);
 265:Generated_Source\PSoC5/CAN_TX_RX_func.c ****     }
 280              		.loc 1 265 0
 281 001a 7047     		bx	lr
 282              	.L32:
 283              		.align	2
 284              	.L31:
 285 001c 20A00040 		.word	1073782816
 286              		.cfi_endproc
 287              	.LFE2:
 288              		.size	CAN_SendMsgPEI_CHARGER, .-CAN_SendMsgPEI_CHARGER
 289              		.section	.text.CAN_SendMsgPEI_CURRENT,"ax",%progbits
 290              		.align	2
 291              		.global	CAN_SendMsgPEI_CURRENT
 292              		.thumb
 293              		.thumb_func
 294              		.type	CAN_SendMsgPEI_CURRENT, %function
 295              	CAN_SendMsgPEI_CURRENT:
 296              	.LFB3:
ARM GAS  C:\Users\leoja\AppData\Local\Temp\cctKjm6z.s 			page 11


 266:Generated_Source\PSoC5/CAN_TX_RX_func.c **** #endif /* CAN_TX0_FUNC_ENABLE */
 267:Generated_Source\PSoC5/CAN_TX_RX_func.c **** 
 268:Generated_Source\PSoC5/CAN_TX_RX_func.c **** 
 269:Generated_Source\PSoC5/CAN_TX_RX_func.c **** #if (CAN_TX1_FUNC_ENABLE)
 270:Generated_Source\PSoC5/CAN_TX_RX_func.c ****     /*******************************************************************************
 271:Generated_Source\PSoC5/CAN_TX_RX_func.c ****     * FUNCTION NAME:   CAN_SendMsgPEI_CURRENT
 272:Generated_Source\PSoC5/CAN_TX_RX_func.c ****     ********************************************************************************
 273:Generated_Source\PSoC5/CAN_TX_RX_func.c ****     *
 274:Generated_Source\PSoC5/CAN_TX_RX_func.c ****     * Summary:
 275:Generated_Source\PSoC5/CAN_TX_RX_func.c ****     *  This function is the entry point to Transmit Message 1. The function checks
 276:Generated_Source\PSoC5/CAN_TX_RX_func.c ****     *  if mailbox 1 doesn't already have un-transmitted messages waiting for
 277:Generated_Source\PSoC5/CAN_TX_RX_func.c ****     *  arbitration. If not initiate transmission of the message.
 278:Generated_Source\PSoC5/CAN_TX_RX_func.c ****     *  Generated only for the Transmit mailbox designed as Full.
 279:Generated_Source\PSoC5/CAN_TX_RX_func.c ****     *
 280:Generated_Source\PSoC5/CAN_TX_RX_func.c ****     * Parameters:
 281:Generated_Source\PSoC5/CAN_TX_RX_func.c ****     *  None.
 282:Generated_Source\PSoC5/CAN_TX_RX_func.c ****     *
 283:Generated_Source\PSoC5/CAN_TX_RX_func.c ****     * Return:
 284:Generated_Source\PSoC5/CAN_TX_RX_func.c ****     *  Indication if Message has been sent.
 285:Generated_Source\PSoC5/CAN_TX_RX_func.c ****     *   Define                             Description
 286:Generated_Source\PSoC5/CAN_TX_RX_func.c ****     *    CYRET_SUCCESS                      The function passed successfully
 287:Generated_Source\PSoC5/CAN_TX_RX_func.c ****     *    CAN_FAIL              The function failed
 288:Generated_Source\PSoC5/CAN_TX_RX_func.c ****     *
 289:Generated_Source\PSoC5/CAN_TX_RX_func.c ****     *******************************************************************************/
 290:Generated_Source\PSoC5/CAN_TX_RX_func.c ****     uint8 CAN_SendMsgPEI_CURRENT(void) 
 291:Generated_Source\PSoC5/CAN_TX_RX_func.c ****     {
 297              		.loc 1 291 0
 298              		.cfi_startproc
 299              		@ args = 0, pretend = 0, frame = 0
 300              		@ frame_needed = 0, uses_anonymous_args = 0
 301              		@ link register save eliminated.
 302              	.LVL30:
 292:Generated_Source\PSoC5/CAN_TX_RX_func.c ****         uint8 result = CYRET_SUCCESS;
 293:Generated_Source\PSoC5/CAN_TX_RX_func.c **** 
 294:Generated_Source\PSoC5/CAN_TX_RX_func.c ****         #if (CY_PSOC3 || CY_PSOC5)
 295:Generated_Source\PSoC5/CAN_TX_RX_func.c ****             if ((CAN_TX[1u].txcmd.byte[0u] & CAN_TX_REQUEST_PENDING) != 0u)
 303              		.loc 1 295 0
 304 0000 064B     		ldr	r3, .L36
 305 0002 1B78     		ldrb	r3, [r3]	@ zero_extendqisi2
 306 0004 13F0010F 		tst	r3, #1
 307 0008 06D1     		bne	.L35
 296:Generated_Source\PSoC5/CAN_TX_RX_func.c ****         #else  /* CY_PSOC4 */
 297:Generated_Source\PSoC5/CAN_TX_RX_func.c ****             if ((CAN_TX_CMD_REG(1u) & CAN_TX_REQUEST_PENDING) != 0u)
 298:Generated_Source\PSoC5/CAN_TX_RX_func.c ****         #endif /* CY_PSOC3 || CY_PSOC5 */
 299:Generated_Source\PSoC5/CAN_TX_RX_func.c ****             {
 300:Generated_Source\PSoC5/CAN_TX_RX_func.c ****                 result = CAN_FAIL;
 301:Generated_Source\PSoC5/CAN_TX_RX_func.c ****             }
 302:Generated_Source\PSoC5/CAN_TX_RX_func.c ****             else
 303:Generated_Source\PSoC5/CAN_TX_RX_func.c ****             {
 304:Generated_Source\PSoC5/CAN_TX_RX_func.c ****                 /* `#START MESSAGE_PEI_CURRENT_TRASMITTED` */
 305:Generated_Source\PSoC5/CAN_TX_RX_func.c **** 
 306:Generated_Source\PSoC5/CAN_TX_RX_func.c ****                 /* `#END` */
 307:Generated_Source\PSoC5/CAN_TX_RX_func.c **** 
 308:Generated_Source\PSoC5/CAN_TX_RX_func.c ****                 #ifdef CAN_SEND_MSG_PEI_CURRENT_CALLBACK
 309:Generated_Source\PSoC5/CAN_TX_RX_func.c ****                     CAN_SendMsg_PEI_CURRENT_Callback();
 310:Generated_Source\PSoC5/CAN_TX_RX_func.c ****                 #endif /* CAN_SEND_MSG_PEI_CURRENT_CALLBACK */
 311:Generated_Source\PSoC5/CAN_TX_RX_func.c **** 
ARM GAS  C:\Users\leoja\AppData\Local\Temp\cctKjm6z.s 			page 12


 312:Generated_Source\PSoC5/CAN_TX_RX_func.c ****                 CY_SET_REG32(CAN_TX_CMD_PTR(1u),
 308              		.loc 1 312 0
 309 000a 044A     		ldr	r2, .L36
 310 000c 1368     		ldr	r3, [r2]
 311 000e 43F00103 		orr	r3, r3, #1
 312 0012 1360     		str	r3, [r2]
 292:Generated_Source\PSoC5/CAN_TX_RX_func.c ****         uint8 result = CYRET_SUCCESS;
 313              		.loc 1 292 0
 314 0014 0020     		movs	r0, #0
 315 0016 7047     		bx	lr
 316              	.L35:
 300:Generated_Source\PSoC5/CAN_TX_RX_func.c ****             }
 317              		.loc 1 300 0
 318 0018 0120     		movs	r0, #1
 319              	.LVL31:
 313:Generated_Source\PSoC5/CAN_TX_RX_func.c ****                 CY_GET_REG32(CAN_TX_CMD_PTR(1u)) | CAN_SEND_MESSAGE);
 314:Generated_Source\PSoC5/CAN_TX_RX_func.c ****             }
 315:Generated_Source\PSoC5/CAN_TX_RX_func.c **** 
 316:Generated_Source\PSoC5/CAN_TX_RX_func.c ****         return (result);
 317:Generated_Source\PSoC5/CAN_TX_RX_func.c ****     }
 320              		.loc 1 317 0
 321 001a 7047     		bx	lr
 322              	.L37:
 323              		.align	2
 324              	.L36:
 325 001c 30A00040 		.word	1073782832
 326              		.cfi_endproc
 327              	.LFE3:
 328              		.size	CAN_SendMsgPEI_CURRENT, .-CAN_SendMsgPEI_CURRENT
 329              		.section	.text.CAN_ReceiveMsg,"ax",%progbits
 330              		.align	2
 331              		.global	CAN_ReceiveMsg
 332              		.thumb
 333              		.thumb_func
 334              		.type	CAN_ReceiveMsg, %function
 335              	CAN_ReceiveMsg:
 336              	.LFB4:
 318:Generated_Source\PSoC5/CAN_TX_RX_func.c **** #endif /* CAN_TX1_FUNC_ENABLE */
 319:Generated_Source\PSoC5/CAN_TX_RX_func.c **** 
 320:Generated_Source\PSoC5/CAN_TX_RX_func.c **** 
 321:Generated_Source\PSoC5/CAN_TX_RX_func.c **** #if (CAN_TX2_FUNC_ENABLE)
 322:Generated_Source\PSoC5/CAN_TX_RX_func.c ****     /*******************************************************************************
 323:Generated_Source\PSoC5/CAN_TX_RX_func.c ****     * FUNCTION NAME:   CAN_SendMsg2
 324:Generated_Source\PSoC5/CAN_TX_RX_func.c ****     ********************************************************************************
 325:Generated_Source\PSoC5/CAN_TX_RX_func.c ****     *
 326:Generated_Source\PSoC5/CAN_TX_RX_func.c ****     * Summary:
 327:Generated_Source\PSoC5/CAN_TX_RX_func.c ****     *  This function is the entry point to Transmit Message 2. The function checks
 328:Generated_Source\PSoC5/CAN_TX_RX_func.c ****     *  if mailbox 2 doesn't already have un-transmitted messages waiting for
 329:Generated_Source\PSoC5/CAN_TX_RX_func.c ****     *  arbitration. If not initiate transmission of the message.
 330:Generated_Source\PSoC5/CAN_TX_RX_func.c ****     *  Generated only for the Transmit mailbox designed as Full.
 331:Generated_Source\PSoC5/CAN_TX_RX_func.c ****     *
 332:Generated_Source\PSoC5/CAN_TX_RX_func.c ****     * Parameters:
 333:Generated_Source\PSoC5/CAN_TX_RX_func.c ****     *  None.
 334:Generated_Source\PSoC5/CAN_TX_RX_func.c ****     *
 335:Generated_Source\PSoC5/CAN_TX_RX_func.c ****     * Return:
 336:Generated_Source\PSoC5/CAN_TX_RX_func.c ****     *  Indication if Message has been sent.
 337:Generated_Source\PSoC5/CAN_TX_RX_func.c ****     *   Define                             Description
ARM GAS  C:\Users\leoja\AppData\Local\Temp\cctKjm6z.s 			page 13


 338:Generated_Source\PSoC5/CAN_TX_RX_func.c ****     *    CYRET_SUCCESS                      The function passed successfully
 339:Generated_Source\PSoC5/CAN_TX_RX_func.c ****     *    CAN_FAIL              The function failed
 340:Generated_Source\PSoC5/CAN_TX_RX_func.c ****     *
 341:Generated_Source\PSoC5/CAN_TX_RX_func.c ****     *******************************************************************************/
 342:Generated_Source\PSoC5/CAN_TX_RX_func.c ****     uint8 CAN_SendMsg2(void) 
 343:Generated_Source\PSoC5/CAN_TX_RX_func.c ****     {
 344:Generated_Source\PSoC5/CAN_TX_RX_func.c ****         uint8 result = CYRET_SUCCESS;
 345:Generated_Source\PSoC5/CAN_TX_RX_func.c **** 
 346:Generated_Source\PSoC5/CAN_TX_RX_func.c ****         #if (CY_PSOC3 || CY_PSOC5)
 347:Generated_Source\PSoC5/CAN_TX_RX_func.c ****             if ((CAN_TX[2u].txcmd.byte[0u] & CAN_TX_REQUEST_PENDING) != 0u)
 348:Generated_Source\PSoC5/CAN_TX_RX_func.c ****         #else  /* CY_PSOC4 */
 349:Generated_Source\PSoC5/CAN_TX_RX_func.c ****             if ((CAN_TX_CMD_REG(2u) & CAN_TX_REQUEST_PENDING) != 0u)
 350:Generated_Source\PSoC5/CAN_TX_RX_func.c ****         #endif /* CY_PSOC3 || CY_PSOC5 */
 351:Generated_Source\PSoC5/CAN_TX_RX_func.c ****             {
 352:Generated_Source\PSoC5/CAN_TX_RX_func.c ****                 result = CAN_FAIL;
 353:Generated_Source\PSoC5/CAN_TX_RX_func.c ****             }
 354:Generated_Source\PSoC5/CAN_TX_RX_func.c ****             else
 355:Generated_Source\PSoC5/CAN_TX_RX_func.c ****             {
 356:Generated_Source\PSoC5/CAN_TX_RX_func.c ****                 /* `#START MESSAGE_2_TRASMITTED` */
 357:Generated_Source\PSoC5/CAN_TX_RX_func.c **** 
 358:Generated_Source\PSoC5/CAN_TX_RX_func.c ****                 /* `#END` */
 359:Generated_Source\PSoC5/CAN_TX_RX_func.c **** 
 360:Generated_Source\PSoC5/CAN_TX_RX_func.c ****                 #ifdef CAN_SEND_MSG_2_CALLBACK
 361:Generated_Source\PSoC5/CAN_TX_RX_func.c ****                     CAN_SendMsg_2_Callback();
 362:Generated_Source\PSoC5/CAN_TX_RX_func.c ****                 #endif /* CAN_SEND_MSG_2_CALLBACK */
 363:Generated_Source\PSoC5/CAN_TX_RX_func.c **** 
 364:Generated_Source\PSoC5/CAN_TX_RX_func.c ****                 CY_SET_REG32(CAN_TX_CMD_PTR(2u),
 365:Generated_Source\PSoC5/CAN_TX_RX_func.c ****                 CY_GET_REG32(CAN_TX_CMD_PTR(2u)) | CAN_SEND_MESSAGE);
 366:Generated_Source\PSoC5/CAN_TX_RX_func.c ****             }
 367:Generated_Source\PSoC5/CAN_TX_RX_func.c **** 
 368:Generated_Source\PSoC5/CAN_TX_RX_func.c ****         return (result);
 369:Generated_Source\PSoC5/CAN_TX_RX_func.c ****     }
 370:Generated_Source\PSoC5/CAN_TX_RX_func.c **** #endif /* CAN_TX2_FUNC_ENABLE */
 371:Generated_Source\PSoC5/CAN_TX_RX_func.c **** 
 372:Generated_Source\PSoC5/CAN_TX_RX_func.c **** 
 373:Generated_Source\PSoC5/CAN_TX_RX_func.c **** #if (CAN_TX3_FUNC_ENABLE)
 374:Generated_Source\PSoC5/CAN_TX_RX_func.c ****     /*******************************************************************************
 375:Generated_Source\PSoC5/CAN_TX_RX_func.c ****     * FUNCTION NAME:   CAN_SendMsg3
 376:Generated_Source\PSoC5/CAN_TX_RX_func.c ****     ********************************************************************************
 377:Generated_Source\PSoC5/CAN_TX_RX_func.c ****     *
 378:Generated_Source\PSoC5/CAN_TX_RX_func.c ****     * Summary:
 379:Generated_Source\PSoC5/CAN_TX_RX_func.c ****     *  This function is the entry point to Transmit Message 3. The function checks
 380:Generated_Source\PSoC5/CAN_TX_RX_func.c ****     *  if mailbox 3 doesn't already have un-transmitted messages waiting for
 381:Generated_Source\PSoC5/CAN_TX_RX_func.c ****     *  arbitration. If not initiate transmission of the message.
 382:Generated_Source\PSoC5/CAN_TX_RX_func.c ****     *  Generated only for the Transmit mailbox designed as Full.
 383:Generated_Source\PSoC5/CAN_TX_RX_func.c ****     *
 384:Generated_Source\PSoC5/CAN_TX_RX_func.c ****     * Parameters:
 385:Generated_Source\PSoC5/CAN_TX_RX_func.c ****     *  None.
 386:Generated_Source\PSoC5/CAN_TX_RX_func.c ****     *
 387:Generated_Source\PSoC5/CAN_TX_RX_func.c ****     * Return:
 388:Generated_Source\PSoC5/CAN_TX_RX_func.c ****     *  Indication if Message has been sent.
 389:Generated_Source\PSoC5/CAN_TX_RX_func.c ****     *   Define                             Description
 390:Generated_Source\PSoC5/CAN_TX_RX_func.c ****     *    CYRET_SUCCESS                      The function passed successfully
 391:Generated_Source\PSoC5/CAN_TX_RX_func.c ****     *    CAN_FAIL              The function failed
 392:Generated_Source\PSoC5/CAN_TX_RX_func.c ****     *
 393:Generated_Source\PSoC5/CAN_TX_RX_func.c ****     *******************************************************************************/
 394:Generated_Source\PSoC5/CAN_TX_RX_func.c ****     uint8 CAN_SendMsg3(void) 
ARM GAS  C:\Users\leoja\AppData\Local\Temp\cctKjm6z.s 			page 14


 395:Generated_Source\PSoC5/CAN_TX_RX_func.c ****     {
 396:Generated_Source\PSoC5/CAN_TX_RX_func.c ****         uint8 result = CYRET_SUCCESS;
 397:Generated_Source\PSoC5/CAN_TX_RX_func.c **** 
 398:Generated_Source\PSoC5/CAN_TX_RX_func.c ****         #if (CY_PSOC3 || CY_PSOC5)
 399:Generated_Source\PSoC5/CAN_TX_RX_func.c ****             if ((CAN_TX[3u].txcmd.byte[0u] & CAN_TX_REQUEST_PENDING) != 0u)
 400:Generated_Source\PSoC5/CAN_TX_RX_func.c ****         #else  /* CY_PSOC4 */
 401:Generated_Source\PSoC5/CAN_TX_RX_func.c ****             if ((CAN_TX_CMD_REG(3u) & CAN_TX_REQUEST_PENDING) != 0u)
 402:Generated_Source\PSoC5/CAN_TX_RX_func.c ****         #endif /* CY_PSOC3 || CY_PSOC5 */
 403:Generated_Source\PSoC5/CAN_TX_RX_func.c ****             {
 404:Generated_Source\PSoC5/CAN_TX_RX_func.c ****                 result = CAN_FAIL;
 405:Generated_Source\PSoC5/CAN_TX_RX_func.c ****             }
 406:Generated_Source\PSoC5/CAN_TX_RX_func.c ****             else
 407:Generated_Source\PSoC5/CAN_TX_RX_func.c ****             {
 408:Generated_Source\PSoC5/CAN_TX_RX_func.c ****                 /* `#START MESSAGE_3_TRASMITTED` */
 409:Generated_Source\PSoC5/CAN_TX_RX_func.c **** 
 410:Generated_Source\PSoC5/CAN_TX_RX_func.c ****                 /* `#END` */
 411:Generated_Source\PSoC5/CAN_TX_RX_func.c **** 
 412:Generated_Source\PSoC5/CAN_TX_RX_func.c ****                 #ifdef CAN_SEND_MSG_3_CALLBACK
 413:Generated_Source\PSoC5/CAN_TX_RX_func.c ****                     CAN_SendMsg_3_Callback();
 414:Generated_Source\PSoC5/CAN_TX_RX_func.c ****                 #endif /* CAN_SEND_MSG_3_CALLBACK */
 415:Generated_Source\PSoC5/CAN_TX_RX_func.c **** 
 416:Generated_Source\PSoC5/CAN_TX_RX_func.c ****                 CY_SET_REG32(CAN_TX_CMD_PTR(3u),
 417:Generated_Source\PSoC5/CAN_TX_RX_func.c ****                 CY_GET_REG32(CAN_TX_CMD_PTR(3u)) | CAN_SEND_MESSAGE);
 418:Generated_Source\PSoC5/CAN_TX_RX_func.c ****             }
 419:Generated_Source\PSoC5/CAN_TX_RX_func.c **** 
 420:Generated_Source\PSoC5/CAN_TX_RX_func.c ****         return (result);
 421:Generated_Source\PSoC5/CAN_TX_RX_func.c ****     }
 422:Generated_Source\PSoC5/CAN_TX_RX_func.c **** #endif /* CAN_TX3_FUNC_ENABLE */
 423:Generated_Source\PSoC5/CAN_TX_RX_func.c **** 
 424:Generated_Source\PSoC5/CAN_TX_RX_func.c **** 
 425:Generated_Source\PSoC5/CAN_TX_RX_func.c **** #if (CAN_TX4_FUNC_ENABLE)
 426:Generated_Source\PSoC5/CAN_TX_RX_func.c ****     /*******************************************************************************
 427:Generated_Source\PSoC5/CAN_TX_RX_func.c ****     * FUNCTION NAME:   CAN_SendMsg4
 428:Generated_Source\PSoC5/CAN_TX_RX_func.c ****     ********************************************************************************
 429:Generated_Source\PSoC5/CAN_TX_RX_func.c ****     *
 430:Generated_Source\PSoC5/CAN_TX_RX_func.c ****     * Summary:
 431:Generated_Source\PSoC5/CAN_TX_RX_func.c ****     *  This function is the entry point to Transmit Message 4. The function checks
 432:Generated_Source\PSoC5/CAN_TX_RX_func.c ****     *  if mailbox 4 doesn't already have un-transmitted messages waiting for
 433:Generated_Source\PSoC5/CAN_TX_RX_func.c ****     *  arbitration. If not initiate transmission of the message.
 434:Generated_Source\PSoC5/CAN_TX_RX_func.c ****     *  Generated only for the Transmit mailbox designed as Full.
 435:Generated_Source\PSoC5/CAN_TX_RX_func.c ****     *
 436:Generated_Source\PSoC5/CAN_TX_RX_func.c ****     * Parameters:
 437:Generated_Source\PSoC5/CAN_TX_RX_func.c ****     *  None.
 438:Generated_Source\PSoC5/CAN_TX_RX_func.c ****     *
 439:Generated_Source\PSoC5/CAN_TX_RX_func.c ****     * Return:
 440:Generated_Source\PSoC5/CAN_TX_RX_func.c ****     *  Indication if Message has been sent.
 441:Generated_Source\PSoC5/CAN_TX_RX_func.c ****     *   Define                             Description
 442:Generated_Source\PSoC5/CAN_TX_RX_func.c ****     *    CYRET_SUCCESS                      The function passed successfully
 443:Generated_Source\PSoC5/CAN_TX_RX_func.c ****     *    CAN_FAIL              The function failed
 444:Generated_Source\PSoC5/CAN_TX_RX_func.c ****     *
 445:Generated_Source\PSoC5/CAN_TX_RX_func.c ****     *******************************************************************************/
 446:Generated_Source\PSoC5/CAN_TX_RX_func.c ****     uint8 CAN_SendMsg4(void) 
 447:Generated_Source\PSoC5/CAN_TX_RX_func.c ****     {
 448:Generated_Source\PSoC5/CAN_TX_RX_func.c ****         uint8 result = CYRET_SUCCESS;
 449:Generated_Source\PSoC5/CAN_TX_RX_func.c **** 
 450:Generated_Source\PSoC5/CAN_TX_RX_func.c ****         #if (CY_PSOC3 || CY_PSOC5)
 451:Generated_Source\PSoC5/CAN_TX_RX_func.c ****             if ((CAN_TX[4u].txcmd.byte[0u] & CAN_TX_REQUEST_PENDING) != 0u)
ARM GAS  C:\Users\leoja\AppData\Local\Temp\cctKjm6z.s 			page 15


 452:Generated_Source\PSoC5/CAN_TX_RX_func.c ****         #else  /* CY_PSOC4 */
 453:Generated_Source\PSoC5/CAN_TX_RX_func.c ****             if ((CAN_TX_CMD_REG(4u) & CAN_TX_REQUEST_PENDING) != 0u)
 454:Generated_Source\PSoC5/CAN_TX_RX_func.c ****         #endif /* CY_PSOC3 || CY_PSOC5 */
 455:Generated_Source\PSoC5/CAN_TX_RX_func.c ****             {
 456:Generated_Source\PSoC5/CAN_TX_RX_func.c ****                 result = CAN_FAIL;
 457:Generated_Source\PSoC5/CAN_TX_RX_func.c ****             }
 458:Generated_Source\PSoC5/CAN_TX_RX_func.c ****             else
 459:Generated_Source\PSoC5/CAN_TX_RX_func.c ****             {
 460:Generated_Source\PSoC5/CAN_TX_RX_func.c ****                 /* `#START MESSAGE_4_TRASMITTED` */
 461:Generated_Source\PSoC5/CAN_TX_RX_func.c **** 
 462:Generated_Source\PSoC5/CAN_TX_RX_func.c ****                 /* `#END` */
 463:Generated_Source\PSoC5/CAN_TX_RX_func.c **** 
 464:Generated_Source\PSoC5/CAN_TX_RX_func.c ****                 #ifdef CAN_SEND_MSG_4_CALLBACK
 465:Generated_Source\PSoC5/CAN_TX_RX_func.c ****                     CAN_SendMsg_4_Callback();
 466:Generated_Source\PSoC5/CAN_TX_RX_func.c ****                 #endif /* CAN_SEND_MSG_4_CALLBACK */
 467:Generated_Source\PSoC5/CAN_TX_RX_func.c **** 
 468:Generated_Source\PSoC5/CAN_TX_RX_func.c ****                 CY_SET_REG32(CAN_TX_CMD_PTR(4u),
 469:Generated_Source\PSoC5/CAN_TX_RX_func.c ****                 CY_GET_REG32(CAN_TX_CMD_PTR(4u)) | CAN_SEND_MESSAGE);
 470:Generated_Source\PSoC5/CAN_TX_RX_func.c ****             }
 471:Generated_Source\PSoC5/CAN_TX_RX_func.c **** 
 472:Generated_Source\PSoC5/CAN_TX_RX_func.c ****         return (result);
 473:Generated_Source\PSoC5/CAN_TX_RX_func.c ****     }
 474:Generated_Source\PSoC5/CAN_TX_RX_func.c **** #endif /* CAN_TX4_FUNC_ENABLE */
 475:Generated_Source\PSoC5/CAN_TX_RX_func.c **** 
 476:Generated_Source\PSoC5/CAN_TX_RX_func.c **** 
 477:Generated_Source\PSoC5/CAN_TX_RX_func.c **** #if (CAN_TX5_FUNC_ENABLE)
 478:Generated_Source\PSoC5/CAN_TX_RX_func.c ****     /*******************************************************************************
 479:Generated_Source\PSoC5/CAN_TX_RX_func.c ****     * FUNCTION NAME:   CAN_SendMsg5
 480:Generated_Source\PSoC5/CAN_TX_RX_func.c ****     ********************************************************************************
 481:Generated_Source\PSoC5/CAN_TX_RX_func.c ****     *
 482:Generated_Source\PSoC5/CAN_TX_RX_func.c ****     * Summary:
 483:Generated_Source\PSoC5/CAN_TX_RX_func.c ****     *  This function is the entry point to Transmit Message 5. The function checks
 484:Generated_Source\PSoC5/CAN_TX_RX_func.c ****     *  if mailbox 5 doesn't already have un-transmitted messages waiting for
 485:Generated_Source\PSoC5/CAN_TX_RX_func.c ****     *  arbitration. If not initiate transmission of the message.
 486:Generated_Source\PSoC5/CAN_TX_RX_func.c ****     *  Generated only for the Transmit mailbox designed as Full.
 487:Generated_Source\PSoC5/CAN_TX_RX_func.c ****     *
 488:Generated_Source\PSoC5/CAN_TX_RX_func.c ****     * Parameters:
 489:Generated_Source\PSoC5/CAN_TX_RX_func.c ****     *  None.
 490:Generated_Source\PSoC5/CAN_TX_RX_func.c ****     *
 491:Generated_Source\PSoC5/CAN_TX_RX_func.c ****     * Return:
 492:Generated_Source\PSoC5/CAN_TX_RX_func.c ****     *  Indication if Message has been sent.
 493:Generated_Source\PSoC5/CAN_TX_RX_func.c ****     *   Define                             Description
 494:Generated_Source\PSoC5/CAN_TX_RX_func.c ****     *    CYRET_SUCCESS                      The function passed successfully
 495:Generated_Source\PSoC5/CAN_TX_RX_func.c ****     *    CAN_FAIL              The function failed
 496:Generated_Source\PSoC5/CAN_TX_RX_func.c ****     *
 497:Generated_Source\PSoC5/CAN_TX_RX_func.c ****     *******************************************************************************/
 498:Generated_Source\PSoC5/CAN_TX_RX_func.c ****     uint8 CAN_SendMsg5(void) 
 499:Generated_Source\PSoC5/CAN_TX_RX_func.c ****     {
 500:Generated_Source\PSoC5/CAN_TX_RX_func.c ****         uint8 result = CYRET_SUCCESS;
 501:Generated_Source\PSoC5/CAN_TX_RX_func.c **** 
 502:Generated_Source\PSoC5/CAN_TX_RX_func.c ****         #if (CY_PSOC3 || CY_PSOC5)
 503:Generated_Source\PSoC5/CAN_TX_RX_func.c ****             if ((CAN_TX[5u].txcmd.byte[0u] & CAN_TX_REQUEST_PENDING) != 0u)
 504:Generated_Source\PSoC5/CAN_TX_RX_func.c ****         #else  /* CY_PSOC4 */
 505:Generated_Source\PSoC5/CAN_TX_RX_func.c ****             if ((CAN_TX_CMD_REG(5u) & CAN_TX_REQUEST_PENDING) != 0u)
 506:Generated_Source\PSoC5/CAN_TX_RX_func.c ****         #endif /* CY_PSOC3 || CY_PSOC5 */
 507:Generated_Source\PSoC5/CAN_TX_RX_func.c ****             {
 508:Generated_Source\PSoC5/CAN_TX_RX_func.c ****                 result = CAN_FAIL;
ARM GAS  C:\Users\leoja\AppData\Local\Temp\cctKjm6z.s 			page 16


 509:Generated_Source\PSoC5/CAN_TX_RX_func.c ****             }
 510:Generated_Source\PSoC5/CAN_TX_RX_func.c ****             else
 511:Generated_Source\PSoC5/CAN_TX_RX_func.c ****             {
 512:Generated_Source\PSoC5/CAN_TX_RX_func.c ****                 /* `#START MESSAGE_5_TRASMITTED` */
 513:Generated_Source\PSoC5/CAN_TX_RX_func.c **** 
 514:Generated_Source\PSoC5/CAN_TX_RX_func.c ****                 /* `#END` */
 515:Generated_Source\PSoC5/CAN_TX_RX_func.c **** 
 516:Generated_Source\PSoC5/CAN_TX_RX_func.c ****                 #ifdef CAN_SEND_MSG_5_CALLBACK
 517:Generated_Source\PSoC5/CAN_TX_RX_func.c ****                     CAN_SendMsg_5_Callback();
 518:Generated_Source\PSoC5/CAN_TX_RX_func.c ****                 #endif /* CAN_SEND_MSG_5_CALLBACK */
 519:Generated_Source\PSoC5/CAN_TX_RX_func.c **** 
 520:Generated_Source\PSoC5/CAN_TX_RX_func.c ****                 CY_SET_REG32(CAN_TX_CMD_PTR(5u),
 521:Generated_Source\PSoC5/CAN_TX_RX_func.c ****                 CY_GET_REG32(CAN_TX_CMD_PTR(5u)) | CAN_SEND_MESSAGE);
 522:Generated_Source\PSoC5/CAN_TX_RX_func.c ****             }
 523:Generated_Source\PSoC5/CAN_TX_RX_func.c **** 
 524:Generated_Source\PSoC5/CAN_TX_RX_func.c ****         return (result);
 525:Generated_Source\PSoC5/CAN_TX_RX_func.c ****     }
 526:Generated_Source\PSoC5/CAN_TX_RX_func.c **** #endif /* CAN_TX5_FUNC_ENABLE */
 527:Generated_Source\PSoC5/CAN_TX_RX_func.c **** 
 528:Generated_Source\PSoC5/CAN_TX_RX_func.c **** 
 529:Generated_Source\PSoC5/CAN_TX_RX_func.c **** #if (CAN_TX6_FUNC_ENABLE)
 530:Generated_Source\PSoC5/CAN_TX_RX_func.c ****     /*******************************************************************************
 531:Generated_Source\PSoC5/CAN_TX_RX_func.c ****     * FUNCTION NAME:   CAN_SendMsg6
 532:Generated_Source\PSoC5/CAN_TX_RX_func.c ****     ********************************************************************************
 533:Generated_Source\PSoC5/CAN_TX_RX_func.c ****     *
 534:Generated_Source\PSoC5/CAN_TX_RX_func.c ****     * Summary:
 535:Generated_Source\PSoC5/CAN_TX_RX_func.c ****     *  This function is the entry point to Transmit Message 6. The function checks
 536:Generated_Source\PSoC5/CAN_TX_RX_func.c ****     *  if mailbox 6 doesn't already have un-transmitted messages waiting for
 537:Generated_Source\PSoC5/CAN_TX_RX_func.c ****     *  arbitration. If not initiate transmission of the message.
 538:Generated_Source\PSoC5/CAN_TX_RX_func.c ****     *  Generated only for the Transmit mailbox designed as Full.
 539:Generated_Source\PSoC5/CAN_TX_RX_func.c ****     *
 540:Generated_Source\PSoC5/CAN_TX_RX_func.c ****     * Parameters:
 541:Generated_Source\PSoC5/CAN_TX_RX_func.c ****     *  None.
 542:Generated_Source\PSoC5/CAN_TX_RX_func.c ****     *
 543:Generated_Source\PSoC5/CAN_TX_RX_func.c ****     * Return:
 544:Generated_Source\PSoC5/CAN_TX_RX_func.c ****     *  Indication if Message has been sent.
 545:Generated_Source\PSoC5/CAN_TX_RX_func.c ****     *   Define                             Description
 546:Generated_Source\PSoC5/CAN_TX_RX_func.c ****     *    CYRET_SUCCESS                      The function passed successfully
 547:Generated_Source\PSoC5/CAN_TX_RX_func.c ****     *    CAN_FAIL              The function failed
 548:Generated_Source\PSoC5/CAN_TX_RX_func.c ****     *
 549:Generated_Source\PSoC5/CAN_TX_RX_func.c ****     *******************************************************************************/
 550:Generated_Source\PSoC5/CAN_TX_RX_func.c ****     uint8 CAN_SendMsg6(void) 
 551:Generated_Source\PSoC5/CAN_TX_RX_func.c ****     {
 552:Generated_Source\PSoC5/CAN_TX_RX_func.c ****         uint8 result = CYRET_SUCCESS;
 553:Generated_Source\PSoC5/CAN_TX_RX_func.c **** 
 554:Generated_Source\PSoC5/CAN_TX_RX_func.c ****         #if (CY_PSOC3 || CY_PSOC5)
 555:Generated_Source\PSoC5/CAN_TX_RX_func.c ****             if ((CAN_TX[6u].txcmd.byte[0u] & CAN_TX_REQUEST_PENDING) != 0u)
 556:Generated_Source\PSoC5/CAN_TX_RX_func.c ****         #else  /* CY_PSOC4 */
 557:Generated_Source\PSoC5/CAN_TX_RX_func.c ****             if ((CAN_TX_CMD_REG(6u) & CAN_TX_REQUEST_PENDING) != 0u)
 558:Generated_Source\PSoC5/CAN_TX_RX_func.c ****         #endif /* CY_PSOC3 || CY_PSOC5 */
 559:Generated_Source\PSoC5/CAN_TX_RX_func.c ****             {
 560:Generated_Source\PSoC5/CAN_TX_RX_func.c ****                 result = CAN_FAIL;
 561:Generated_Source\PSoC5/CAN_TX_RX_func.c ****             }
 562:Generated_Source\PSoC5/CAN_TX_RX_func.c ****             else
 563:Generated_Source\PSoC5/CAN_TX_RX_func.c ****             {
 564:Generated_Source\PSoC5/CAN_TX_RX_func.c ****                 /* `#START MESSAGE_6_TRASMITTED` */
 565:Generated_Source\PSoC5/CAN_TX_RX_func.c **** 
ARM GAS  C:\Users\leoja\AppData\Local\Temp\cctKjm6z.s 			page 17


 566:Generated_Source\PSoC5/CAN_TX_RX_func.c ****                 /* `#END` */
 567:Generated_Source\PSoC5/CAN_TX_RX_func.c **** 
 568:Generated_Source\PSoC5/CAN_TX_RX_func.c ****                 #ifdef CAN_SEND_MSG_6_CALLBACK
 569:Generated_Source\PSoC5/CAN_TX_RX_func.c ****                     CAN_SendMsg_6_Callback();
 570:Generated_Source\PSoC5/CAN_TX_RX_func.c ****                 #endif /* CAN_SEND_MSG_6_CALLBACK */
 571:Generated_Source\PSoC5/CAN_TX_RX_func.c **** 
 572:Generated_Source\PSoC5/CAN_TX_RX_func.c ****                 CY_SET_REG32(CAN_TX_CMD_PTR(6u),
 573:Generated_Source\PSoC5/CAN_TX_RX_func.c ****                 CY_GET_REG32(CAN_TX_CMD_PTR(6u)) | CAN_SEND_MESSAGE);
 574:Generated_Source\PSoC5/CAN_TX_RX_func.c ****             }
 575:Generated_Source\PSoC5/CAN_TX_RX_func.c **** 
 576:Generated_Source\PSoC5/CAN_TX_RX_func.c ****         return (result);
 577:Generated_Source\PSoC5/CAN_TX_RX_func.c ****     }
 578:Generated_Source\PSoC5/CAN_TX_RX_func.c **** #endif /* CAN_TX6_FUNC_ENABLE */
 579:Generated_Source\PSoC5/CAN_TX_RX_func.c **** 
 580:Generated_Source\PSoC5/CAN_TX_RX_func.c **** 
 581:Generated_Source\PSoC5/CAN_TX_RX_func.c **** #if (CAN_TX7_FUNC_ENABLE)
 582:Generated_Source\PSoC5/CAN_TX_RX_func.c ****     /*******************************************************************************
 583:Generated_Source\PSoC5/CAN_TX_RX_func.c ****     * FUNCTION NAME:   CAN_SendMsg7)
 584:Generated_Source\PSoC5/CAN_TX_RX_func.c ****     ********************************************************************************
 585:Generated_Source\PSoC5/CAN_TX_RX_func.c ****     *
 586:Generated_Source\PSoC5/CAN_TX_RX_func.c ****     * Summary:
 587:Generated_Source\PSoC5/CAN_TX_RX_func.c ****     *  This function is the entry point to Transmit Message 7. The function checks
 588:Generated_Source\PSoC5/CAN_TX_RX_func.c ****     *  if mailbox 7 doesn't already have un-transmitted messages waiting for
 589:Generated_Source\PSoC5/CAN_TX_RX_func.c ****     *  arbitration. If not initiate transmission of the message.
 590:Generated_Source\PSoC5/CAN_TX_RX_func.c ****     *  Generated only for the Transmit mailbox designed as Full.
 591:Generated_Source\PSoC5/CAN_TX_RX_func.c ****     *
 592:Generated_Source\PSoC5/CAN_TX_RX_func.c ****     * Parameters:
 593:Generated_Source\PSoC5/CAN_TX_RX_func.c ****     *  None.
 594:Generated_Source\PSoC5/CAN_TX_RX_func.c ****     *
 595:Generated_Source\PSoC5/CAN_TX_RX_func.c ****     * Return:
 596:Generated_Source\PSoC5/CAN_TX_RX_func.c ****     *  Indication if Message has been sent.
 597:Generated_Source\PSoC5/CAN_TX_RX_func.c ****     *   Define                             Description
 598:Generated_Source\PSoC5/CAN_TX_RX_func.c ****     *    CYRET_SUCCESS                      The function passed successfully
 599:Generated_Source\PSoC5/CAN_TX_RX_func.c ****     *    CAN_FAIL              The function failed
 600:Generated_Source\PSoC5/CAN_TX_RX_func.c ****     *
 601:Generated_Source\PSoC5/CAN_TX_RX_func.c ****     *******************************************************************************/
 602:Generated_Source\PSoC5/CAN_TX_RX_func.c ****     uint8 CAN_SendMsg7(void) 
 603:Generated_Source\PSoC5/CAN_TX_RX_func.c ****     {
 604:Generated_Source\PSoC5/CAN_TX_RX_func.c ****         uint8 result = CYRET_SUCCESS;
 605:Generated_Source\PSoC5/CAN_TX_RX_func.c **** 
 606:Generated_Source\PSoC5/CAN_TX_RX_func.c ****         #if (CY_PSOC3 || CY_PSOC5)
 607:Generated_Source\PSoC5/CAN_TX_RX_func.c ****             if ((CAN_TX[7u].txcmd.byte[0u] & CAN_TX_REQUEST_PENDING) != 0u)
 608:Generated_Source\PSoC5/CAN_TX_RX_func.c ****         #else  /* CY_PSOC4 */
 609:Generated_Source\PSoC5/CAN_TX_RX_func.c ****             if ((CAN_TX_CMD_REG(7u) & CAN_TX_REQUEST_PENDING) != 0u)
 610:Generated_Source\PSoC5/CAN_TX_RX_func.c ****         #endif /* CY_PSOC3 || CY_PSOC5 */
 611:Generated_Source\PSoC5/CAN_TX_RX_func.c ****             {
 612:Generated_Source\PSoC5/CAN_TX_RX_func.c ****                 result = CAN_FAIL;
 613:Generated_Source\PSoC5/CAN_TX_RX_func.c ****             }
 614:Generated_Source\PSoC5/CAN_TX_RX_func.c ****             else
 615:Generated_Source\PSoC5/CAN_TX_RX_func.c ****             {
 616:Generated_Source\PSoC5/CAN_TX_RX_func.c ****                 /* `#START MESSAGE_7_TRASMITTED` */
 617:Generated_Source\PSoC5/CAN_TX_RX_func.c **** 
 618:Generated_Source\PSoC5/CAN_TX_RX_func.c ****                 /* `#END` */
 619:Generated_Source\PSoC5/CAN_TX_RX_func.c **** 
 620:Generated_Source\PSoC5/CAN_TX_RX_func.c ****                 #ifdef CAN_SEND_MSG_7_CALLBACK
 621:Generated_Source\PSoC5/CAN_TX_RX_func.c ****                     CAN_SendMsg_7_Callback();
 622:Generated_Source\PSoC5/CAN_TX_RX_func.c ****                 #endif /* CAN_SEND_MSG_7_CALLBACK */
ARM GAS  C:\Users\leoja\AppData\Local\Temp\cctKjm6z.s 			page 18


 623:Generated_Source\PSoC5/CAN_TX_RX_func.c **** 
 624:Generated_Source\PSoC5/CAN_TX_RX_func.c ****                 CY_SET_REG32(CAN_TX_CMD_PTR(7u),
 625:Generated_Source\PSoC5/CAN_TX_RX_func.c ****                 CY_GET_REG32(CAN_TX_CMD_PTR(7u)) | CAN_SEND_MESSAGE);
 626:Generated_Source\PSoC5/CAN_TX_RX_func.c ****             }
 627:Generated_Source\PSoC5/CAN_TX_RX_func.c **** 
 628:Generated_Source\PSoC5/CAN_TX_RX_func.c ****         return (result);
 629:Generated_Source\PSoC5/CAN_TX_RX_func.c ****     }
 630:Generated_Source\PSoC5/CAN_TX_RX_func.c **** #endif /* CAN_TX7_FUNC_ENABLE */
 631:Generated_Source\PSoC5/CAN_TX_RX_func.c **** 
 632:Generated_Source\PSoC5/CAN_TX_RX_func.c **** 
 633:Generated_Source\PSoC5/CAN_TX_RX_func.c **** /*******************************************************************************
 634:Generated_Source\PSoC5/CAN_TX_RX_func.c **** * FUNCTION NAME:   CAN_ReceiveMsg
 635:Generated_Source\PSoC5/CAN_TX_RX_func.c **** ********************************************************************************
 636:Generated_Source\PSoC5/CAN_TX_RX_func.c **** *
 637:Generated_Source\PSoC5/CAN_TX_RX_func.c **** * Summary:
 638:Generated_Source\PSoC5/CAN_TX_RX_func.c **** *  This function is the entry point to Receive Message Interrupt for Basic
 639:Generated_Source\PSoC5/CAN_TX_RX_func.c **** *  mailboxes. Clears the Receive particular Message interrupt flag. Generated
 640:Generated_Source\PSoC5/CAN_TX_RX_func.c **** *  only if one of the Receive mailboxes is designed as Basic.
 641:Generated_Source\PSoC5/CAN_TX_RX_func.c **** *
 642:Generated_Source\PSoC5/CAN_TX_RX_func.c **** * Parameters:
 643:Generated_Source\PSoC5/CAN_TX_RX_func.c **** *  rxMailbox: The mailbox number that trig Receive Message Interrupt.
 644:Generated_Source\PSoC5/CAN_TX_RX_func.c **** *
 645:Generated_Source\PSoC5/CAN_TX_RX_func.c **** * Return:
 646:Generated_Source\PSoC5/CAN_TX_RX_func.c **** *  None.
 647:Generated_Source\PSoC5/CAN_TX_RX_func.c **** *
 648:Generated_Source\PSoC5/CAN_TX_RX_func.c **** * Reentrant:
 649:Generated_Source\PSoC5/CAN_TX_RX_func.c **** *  Depends on the Customer code.
 650:Generated_Source\PSoC5/CAN_TX_RX_func.c **** *
 651:Generated_Source\PSoC5/CAN_TX_RX_func.c **** *******************************************************************************/
 652:Generated_Source\PSoC5/CAN_TX_RX_func.c **** void CAN_ReceiveMsg(uint8 rxMailbox) 
 653:Generated_Source\PSoC5/CAN_TX_RX_func.c **** {
 337              		.loc 1 653 0
 338              		.cfi_startproc
 339              		@ args = 0, pretend = 0, frame = 0
 340              		@ frame_needed = 0, uses_anonymous_args = 0
 341              		@ link register save eliminated.
 342              	.LVL32:
 654:Generated_Source\PSoC5/CAN_TX_RX_func.c ****     #if (CY_PSOC3 || CY_PSOC5)
 655:Generated_Source\PSoC5/CAN_TX_RX_func.c ****         if ((CAN_RX[rxMailbox].rxcmd.byte[0u] & CAN_RX_ACK_MSG) != 0u)
 343              		.loc 1 655 0
 344 0000 4001     		lsls	r0, r0, #5
 345              	.LVL33:
 346 0002 054B     		ldr	r3, .L40
 347 0004 C25C     		ldrb	r2, [r0, r3]	@ zero_extendqisi2
 348 0006 12F0010F 		tst	r2, #1
 349 000a 03D0     		beq	.L38
 656:Generated_Source\PSoC5/CAN_TX_RX_func.c ****     #else  /* CY_PSOC4 */
 657:Generated_Source\PSoC5/CAN_TX_RX_func.c ****         if ((CAN_RX_CMD_REG(rxMailbox) & CAN_RX_ACK_MSG) != 0u)
 658:Generated_Source\PSoC5/CAN_TX_RX_func.c ****     #endif /* CY_PSOC3 || CY_PSOC5 */
 659:Generated_Source\PSoC5/CAN_TX_RX_func.c ****         {
 660:Generated_Source\PSoC5/CAN_TX_RX_func.c ****             /* `#START MESSAGE_BASIC_RECEIVED` */
 661:Generated_Source\PSoC5/CAN_TX_RX_func.c **** 
 662:Generated_Source\PSoC5/CAN_TX_RX_func.c ****             /* `#END` */
 663:Generated_Source\PSoC5/CAN_TX_RX_func.c **** 
 664:Generated_Source\PSoC5/CAN_TX_RX_func.c ****             #ifdef CAN_RECEIVE_MSG_CALLBACK
 665:Generated_Source\PSoC5/CAN_TX_RX_func.c ****                 CAN_ReceiveMsg_Callback();
 666:Generated_Source\PSoC5/CAN_TX_RX_func.c ****             #endif /* CAN_RECEIVE_MSG_CALLBACK */
ARM GAS  C:\Users\leoja\AppData\Local\Temp\cctKjm6z.s 			page 19


 667:Generated_Source\PSoC5/CAN_TX_RX_func.c **** 
 668:Generated_Source\PSoC5/CAN_TX_RX_func.c ****             #if (CY_PSOC3 || CY_PSOC5)
 669:Generated_Source\PSoC5/CAN_TX_RX_func.c ****                 CAN_RX[rxMailbox].rxcmd.byte[0u] |= CAN_RX_ACK_MSG;
 350              		.loc 1 669 0
 351 000c C25C     		ldrb	r2, [r0, r3]	@ zero_extendqisi2
 352 000e 42F00102 		orr	r2, r2, #1
 353 0012 C254     		strb	r2, [r0, r3]
 354              	.L38:
 355 0014 7047     		bx	lr
 356              	.L41:
 357 0016 00BF     		.align	2
 358              	.L40:
 359 0018 A0A00040 		.word	1073782944
 360              		.cfi_endproc
 361              	.LFE4:
 362              		.size	CAN_ReceiveMsg, .-CAN_ReceiveMsg
 363              		.section	.text.CAN_ReceiveMsgvcu_torque_request,"ax",%progbits
 364              		.align	2
 365              		.global	CAN_ReceiveMsgvcu_torque_request
 366              		.thumb
 367              		.thumb_func
 368              		.type	CAN_ReceiveMsgvcu_torque_request, %function
 369              	CAN_ReceiveMsgvcu_torque_request:
 370              	.LFB5:
 670:Generated_Source\PSoC5/CAN_TX_RX_func.c ****             #else  /* CY_PSOC4 */
 671:Generated_Source\PSoC5/CAN_TX_RX_func.c ****                 CAN_RX_CMD_REG(rxMailbox) |= CAN_RX_ACK_MSG;
 672:Generated_Source\PSoC5/CAN_TX_RX_func.c ****             #endif /* CY_PSOC3 || CY_PSOC5 */
 673:Generated_Source\PSoC5/CAN_TX_RX_func.c ****         }
 674:Generated_Source\PSoC5/CAN_TX_RX_func.c **** }
 675:Generated_Source\PSoC5/CAN_TX_RX_func.c **** 
 676:Generated_Source\PSoC5/CAN_TX_RX_func.c **** 
 677:Generated_Source\PSoC5/CAN_TX_RX_func.c **** #if (CAN_RX0_FUNC_ENABLE)
 678:Generated_Source\PSoC5/CAN_TX_RX_func.c ****     /*******************************************************************************
 679:Generated_Source\PSoC5/CAN_TX_RX_func.c ****     * FUNCTION NAME:   CAN_ReceiveMsgvcu_torque_request
 680:Generated_Source\PSoC5/CAN_TX_RX_func.c ****     ********************************************************************************
 681:Generated_Source\PSoC5/CAN_TX_RX_func.c ****     *
 682:Generated_Source\PSoC5/CAN_TX_RX_func.c ****     * Summary:
 683:Generated_Source\PSoC5/CAN_TX_RX_func.c ****     *  This function is the entry point to Receive Message 0 Interrupt. Clears the
 684:Generated_Source\PSoC5/CAN_TX_RX_func.c ****     *  Receive Message 0 interrupt flag. Generated only for the Receive mailbox
 685:Generated_Source\PSoC5/CAN_TX_RX_func.c ****     *  designed as Full.
 686:Generated_Source\PSoC5/CAN_TX_RX_func.c ****     *
 687:Generated_Source\PSoC5/CAN_TX_RX_func.c ****     * Parameters:
 688:Generated_Source\PSoC5/CAN_TX_RX_func.c ****     *  None.
 689:Generated_Source\PSoC5/CAN_TX_RX_func.c ****     *
 690:Generated_Source\PSoC5/CAN_TX_RX_func.c ****     * Return:
 691:Generated_Source\PSoC5/CAN_TX_RX_func.c ****     *  None.
 692:Generated_Source\PSoC5/CAN_TX_RX_func.c ****     *
 693:Generated_Source\PSoC5/CAN_TX_RX_func.c ****     * Reentrant:
 694:Generated_Source\PSoC5/CAN_TX_RX_func.c ****     *  Depends on the Customer code.
 695:Generated_Source\PSoC5/CAN_TX_RX_func.c ****     *
 696:Generated_Source\PSoC5/CAN_TX_RX_func.c ****     *******************************************************************************/
 697:Generated_Source\PSoC5/CAN_TX_RX_func.c ****     void CAN_ReceiveMsgvcu_torque_request(void) 
 698:Generated_Source\PSoC5/CAN_TX_RX_func.c ****     {
 371              		.loc 1 698 0
 372              		.cfi_startproc
 373              		@ args = 0, pretend = 0, frame = 0
 374              		@ frame_needed = 0, uses_anonymous_args = 0
ARM GAS  C:\Users\leoja\AppData\Local\Temp\cctKjm6z.s 			page 20


 375              		@ link register save eliminated.
 699:Generated_Source\PSoC5/CAN_TX_RX_func.c ****         /* `#START MESSAGE_vcu_torque_request_RECEIVED` */
 700:Generated_Source\PSoC5/CAN_TX_RX_func.c ****         
 701:Generated_Source\PSoC5/CAN_TX_RX_func.c ****         loops_since_vcu_message = 0;
 376              		.loc 1 701 0
 377 0000 0022     		movs	r2, #0
 378 0002 084B     		ldr	r3, .L43
 379 0004 1A80     		strh	r2, [r3]	@ movhi
 702:Generated_Source\PSoC5/CAN_TX_RX_func.c ****         vcu_attached = 1;
 380              		.loc 1 702 0
 381 0006 0122     		movs	r2, #1
 382 0008 074B     		ldr	r3, .L43+4
 383 000a 1A70     		strb	r2, [r3]
 703:Generated_Source\PSoC5/CAN_TX_RX_func.c ****         
 704:Generated_Source\PSoC5/CAN_TX_RX_func.c ****         hv_requested = CAN_RX_DATA_BYTE1(CAN_RX_MAILBOX_vcu_torque_request);
 384              		.loc 1 704 0
 385 000c 074B     		ldr	r3, .L43+8
 386 000e D97A     		ldrb	r1, [r3, #11]	@ zero_extendqisi2
 387 0010 074A     		ldr	r2, .L43+12
 388 0012 1170     		strb	r1, [r2]
 705:Generated_Source\PSoC5/CAN_TX_RX_func.c ****         vcu_state = CAN_RX_DATA_BYTE5(CAN_RX_MAILBOX_vcu_torque_request);
 389              		.loc 1 705 0
 390 0014 D97B     		ldrb	r1, [r3, #15]	@ zero_extendqisi2
 391 0016 074A     		ldr	r2, .L43+16
 392 0018 1170     		strb	r1, [r2]
 706:Generated_Source\PSoC5/CAN_TX_RX_func.c **** 
 707:Generated_Source\PSoC5/CAN_TX_RX_func.c ****         /* `#END` */
 708:Generated_Source\PSoC5/CAN_TX_RX_func.c **** 
 709:Generated_Source\PSoC5/CAN_TX_RX_func.c ****         #ifdef CAN_RECEIVE_MSG_vcu_torque_request_CALLBACK
 710:Generated_Source\PSoC5/CAN_TX_RX_func.c ****             CAN_ReceiveMsg_vcu_torque_request_Callback();
 711:Generated_Source\PSoC5/CAN_TX_RX_func.c ****         #endif /* CAN_RECEIVE_MSG_vcu_torque_request_CALLBACK */
 712:Generated_Source\PSoC5/CAN_TX_RX_func.c **** 
 713:Generated_Source\PSoC5/CAN_TX_RX_func.c ****         CAN_RX[0u].rxcmd.byte[0u] |= CAN_RX_ACK_MSG;
 393              		.loc 1 713 0
 394 001a 1A78     		ldrb	r2, [r3]	@ zero_extendqisi2
 395 001c 42F00102 		orr	r2, r2, #1
 396 0020 1A70     		strb	r2, [r3]
 397 0022 7047     		bx	lr
 398              	.L44:
 399              		.align	2
 400              	.L43:
 401 0024 00000000 		.word	loops_since_vcu_message
 402 0028 00000000 		.word	vcu_attached
 403 002c A0A00040 		.word	1073782944
 404 0030 00000000 		.word	hv_requested
 405 0034 00000000 		.word	vcu_state
 406              		.cfi_endproc
 407              	.LFE5:
 408              		.size	CAN_ReceiveMsgvcu_torque_request, .-CAN_ReceiveMsgvcu_torque_request
 409              		.section	.text.CAN_ReceiveMsgbms_status,"ax",%progbits
 410              		.align	2
 411              		.global	CAN_ReceiveMsgbms_status
 412              		.thumb
 413              		.thumb_func
 414              		.type	CAN_ReceiveMsgbms_status, %function
 415              	CAN_ReceiveMsgbms_status:
 416              	.LFB6:
ARM GAS  C:\Users\leoja\AppData\Local\Temp\cctKjm6z.s 			page 21


 714:Generated_Source\PSoC5/CAN_TX_RX_func.c ****     }
 715:Generated_Source\PSoC5/CAN_TX_RX_func.c **** #endif /* CAN_RX0_FUNC_ENABLE */
 716:Generated_Source\PSoC5/CAN_TX_RX_func.c **** 
 717:Generated_Source\PSoC5/CAN_TX_RX_func.c **** 
 718:Generated_Source\PSoC5/CAN_TX_RX_func.c **** #if (CAN_RX1_FUNC_ENABLE)
 719:Generated_Source\PSoC5/CAN_TX_RX_func.c ****     /*******************************************************************************
 720:Generated_Source\PSoC5/CAN_TX_RX_func.c ****     * FUNCTION NAME:    CAN_ReceiveMsgbms_status
 721:Generated_Source\PSoC5/CAN_TX_RX_func.c ****     ********************************************************************************
 722:Generated_Source\PSoC5/CAN_TX_RX_func.c ****     *
 723:Generated_Source\PSoC5/CAN_TX_RX_func.c ****     * Summary:
 724:Generated_Source\PSoC5/CAN_TX_RX_func.c ****     *  This function is the entry point to Receive Message 1 Interrupt. Clears the
 725:Generated_Source\PSoC5/CAN_TX_RX_func.c ****     *  Receive Message 1 interrupt flag. Generated only for the Receive mailbox
 726:Generated_Source\PSoC5/CAN_TX_RX_func.c ****     *  designed as Full.
 727:Generated_Source\PSoC5/CAN_TX_RX_func.c ****     *
 728:Generated_Source\PSoC5/CAN_TX_RX_func.c ****     * Parameters:
 729:Generated_Source\PSoC5/CAN_TX_RX_func.c ****     *  None.
 730:Generated_Source\PSoC5/CAN_TX_RX_func.c ****     *
 731:Generated_Source\PSoC5/CAN_TX_RX_func.c ****     * Return:
 732:Generated_Source\PSoC5/CAN_TX_RX_func.c ****     *  None.
 733:Generated_Source\PSoC5/CAN_TX_RX_func.c ****     *
 734:Generated_Source\PSoC5/CAN_TX_RX_func.c ****     * Reentrant:
 735:Generated_Source\PSoC5/CAN_TX_RX_func.c ****     *  Depends on the Customer code.
 736:Generated_Source\PSoC5/CAN_TX_RX_func.c ****     *
 737:Generated_Source\PSoC5/CAN_TX_RX_func.c ****     *******************************************************************************/
 738:Generated_Source\PSoC5/CAN_TX_RX_func.c ****     void CAN_ReceiveMsgbms_status(void) 
 739:Generated_Source\PSoC5/CAN_TX_RX_func.c ****     {
 417              		.loc 1 739 0
 418              		.cfi_startproc
 419              		@ args = 0, pretend = 0, frame = 0
 420              		@ frame_needed = 0, uses_anonymous_args = 0
 421              		@ link register save eliminated.
 740:Generated_Source\PSoC5/CAN_TX_RX_func.c ****         /* `#START MESSAGE_bms_status_RECEIVED` */
 741:Generated_Source\PSoC5/CAN_TX_RX_func.c ****         
 742:Generated_Source\PSoC5/CAN_TX_RX_func.c ****         loops_since_bms_message = 0;
 422              		.loc 1 742 0
 423 0000 0022     		movs	r2, #0
 424 0002 0D4B     		ldr	r3, .L46
 425 0004 1A80     		strh	r2, [r3]	@ movhi
 743:Generated_Source\PSoC5/CAN_TX_RX_func.c ****         
 744:Generated_Source\PSoC5/CAN_TX_RX_func.c ****         bms_temp = CAN_RX_DATA_BYTE1(CAN_RX_MAILBOX_bms_status);
 426              		.loc 1 744 0
 427 0006 0D4B     		ldr	r3, .L46+4
 428 0008 D97A     		ldrb	r1, [r3, #11]	@ zero_extendqisi2
 429 000a 0D4A     		ldr	r2, .L46+8
 430 000c 1170     		strb	r1, [r2]
 745:Generated_Source\PSoC5/CAN_TX_RX_func.c ****         bms_soc = CAN_RX_DATA_BYTE2(CAN_RX_MAILBOX_bms_status);
 431              		.loc 1 745 0
 432 000e 997A     		ldrb	r1, [r3, #10]	@ zero_extendqisi2
 433 0010 0C4A     		ldr	r2, .L46+12
 434 0012 1170     		strb	r1, [r2]
 746:Generated_Source\PSoC5/CAN_TX_RX_func.c ****         bms_status = (CAN_RX_DATA_BYTE3(CAN_RX_MAILBOX_bms_status) << 8) + CAN_RX_DATA_BYTE4(CAN_RX
 435              		.loc 1 746 0
 436 0014 597A     		ldrb	r1, [r3, #9]	@ zero_extendqisi2
 437 0016 1A7A     		ldrb	r2, [r3, #8]	@ zero_extendqisi2
 438 0018 02EB0122 		add	r2, r2, r1, lsl #8
 439 001c 0A49     		ldr	r1, .L46+16
 440 001e 0A80     		strh	r2, [r1]	@ movhi
ARM GAS  C:\Users\leoja\AppData\Local\Temp\cctKjm6z.s 			page 22


 747:Generated_Source\PSoC5/CAN_TX_RX_func.c ****         bms_voltage = (CAN_RX_DATA_BYTE5(CAN_RX_MAILBOX_bms_status) << 8) + CAN_RX_DATA_BYTE6(CAN_R
 441              		.loc 1 747 0
 442 0020 D97B     		ldrb	r1, [r3, #15]	@ zero_extendqisi2
 443 0022 9A7B     		ldrb	r2, [r3, #14]	@ zero_extendqisi2
 444 0024 02EB0122 		add	r2, r2, r1, lsl #8
 445 0028 0849     		ldr	r1, .L46+20
 446 002a 0A80     		strh	r2, [r1]	@ movhi
 748:Generated_Source\PSoC5/CAN_TX_RX_func.c **** 
 749:Generated_Source\PSoC5/CAN_TX_RX_func.c ****         /* `#END` */
 750:Generated_Source\PSoC5/CAN_TX_RX_func.c **** 
 751:Generated_Source\PSoC5/CAN_TX_RX_func.c ****         #ifdef CAN_RECEIVE_MSG_bms_status_CALLBACK
 752:Generated_Source\PSoC5/CAN_TX_RX_func.c ****             CAN_ReceiveMsg_bms_status_Callback();
 753:Generated_Source\PSoC5/CAN_TX_RX_func.c ****         #endif /* CAN_RECEIVE_MSG_bms_status_CALLBACK */
 754:Generated_Source\PSoC5/CAN_TX_RX_func.c **** 
 755:Generated_Source\PSoC5/CAN_TX_RX_func.c ****         CAN_RX[1u].rxcmd.byte[0u] |= CAN_RX_ACK_MSG;
 447              		.loc 1 755 0
 448 002c 1A78     		ldrb	r2, [r3]	@ zero_extendqisi2
 449 002e 42F00102 		orr	r2, r2, #1
 450 0032 1A70     		strb	r2, [r3]
 451 0034 7047     		bx	lr
 452              	.L47:
 453 0036 00BF     		.align	2
 454              	.L46:
 455 0038 00000000 		.word	loops_since_bms_message
 456 003c C0A00040 		.word	1073782976
 457 0040 00000000 		.word	bms_temp
 458 0044 00000000 		.word	bms_soc
 459 0048 00000000 		.word	bms_status
 460 004c 00000000 		.word	bms_voltage
 461              		.cfi_endproc
 462              	.LFE6:
 463              		.size	CAN_ReceiveMsgbms_status, .-CAN_ReceiveMsgbms_status
 464              		.section	.text.CAN_ReceiveMsgcharger_status,"ax",%progbits
 465              		.align	2
 466              		.global	CAN_ReceiveMsgcharger_status
 467              		.thumb
 468              		.thumb_func
 469              		.type	CAN_ReceiveMsgcharger_status, %function
 470              	CAN_ReceiveMsgcharger_status:
 471              	.LFB7:
 756:Generated_Source\PSoC5/CAN_TX_RX_func.c ****     }
 757:Generated_Source\PSoC5/CAN_TX_RX_func.c **** #endif /* CAN_RX1_FUNC_ENABLE */
 758:Generated_Source\PSoC5/CAN_TX_RX_func.c **** 
 759:Generated_Source\PSoC5/CAN_TX_RX_func.c **** 
 760:Generated_Source\PSoC5/CAN_TX_RX_func.c **** #if (CAN_RX2_FUNC_ENABLE)
 761:Generated_Source\PSoC5/CAN_TX_RX_func.c ****     /*******************************************************************************
 762:Generated_Source\PSoC5/CAN_TX_RX_func.c ****     * FUNCTION NAME:   CAN_ReceiveMsgcharger_status
 763:Generated_Source\PSoC5/CAN_TX_RX_func.c ****     ********************************************************************************
 764:Generated_Source\PSoC5/CAN_TX_RX_func.c ****     *
 765:Generated_Source\PSoC5/CAN_TX_RX_func.c ****     * Summary:
 766:Generated_Source\PSoC5/CAN_TX_RX_func.c ****     *  This function is the entry point to Receive Message 2 Interrupt. Clears the
 767:Generated_Source\PSoC5/CAN_TX_RX_func.c ****     *  Receive Message 2 interrupt flag. Generated only for the Receive mailbox
 768:Generated_Source\PSoC5/CAN_TX_RX_func.c ****     *  designed as Full.
 769:Generated_Source\PSoC5/CAN_TX_RX_func.c ****     *
 770:Generated_Source\PSoC5/CAN_TX_RX_func.c ****     * Parameters:
 771:Generated_Source\PSoC5/CAN_TX_RX_func.c ****     *  None.
 772:Generated_Source\PSoC5/CAN_TX_RX_func.c ****     *
ARM GAS  C:\Users\leoja\AppData\Local\Temp\cctKjm6z.s 			page 23


 773:Generated_Source\PSoC5/CAN_TX_RX_func.c ****     * Return:
 774:Generated_Source\PSoC5/CAN_TX_RX_func.c ****     *  None.
 775:Generated_Source\PSoC5/CAN_TX_RX_func.c ****     *
 776:Generated_Source\PSoC5/CAN_TX_RX_func.c ****     * Reentrant:
 777:Generated_Source\PSoC5/CAN_TX_RX_func.c ****     *  Depends on the Customer code.
 778:Generated_Source\PSoC5/CAN_TX_RX_func.c ****     *
 779:Generated_Source\PSoC5/CAN_TX_RX_func.c ****     *******************************************************************************/
 780:Generated_Source\PSoC5/CAN_TX_RX_func.c ****     void CAN_ReceiveMsgcharger_status(void) 
 781:Generated_Source\PSoC5/CAN_TX_RX_func.c ****     {
 472              		.loc 1 781 0
 473              		.cfi_startproc
 474              		@ args = 0, pretend = 0, frame = 8
 475              		@ frame_needed = 0, uses_anonymous_args = 0
 476              		@ link register save eliminated.
 477 0000 82B0     		sub	sp, sp, #8
 478              		.cfi_def_cfa_offset 8
 782:Generated_Source\PSoC5/CAN_TX_RX_func.c ****         /* `#START MESSAGE_charger_status_RECEIVED` */
 783:Generated_Source\PSoC5/CAN_TX_RX_func.c ****         
 784:Generated_Source\PSoC5/CAN_TX_RX_func.c ****         charger_attached = 1;
 479              		.loc 1 784 0
 480 0002 0122     		movs	r2, #1
 481 0004 0E4B     		ldr	r3, .L50
 482 0006 1A70     		strb	r2, [r3]
 785:Generated_Source\PSoC5/CAN_TX_RX_func.c ****         loops_since_charger_message = 0;
 483              		.loc 1 785 0
 484 0008 0022     		movs	r2, #0
 485 000a 0E4B     		ldr	r3, .L50+4
 486 000c 1A80     		strh	r2, [r3]	@ movhi
 786:Generated_Source\PSoC5/CAN_TX_RX_func.c ****         
 787:Generated_Source\PSoC5/CAN_TX_RX_func.c ****         volatile uint16_t charger_voltage = (CAN_RX_DATA_BYTE1(CAN_RX_MAILBOX_charger_status) << 8)
 487              		.loc 1 787 0
 488 000e 0E4B     		ldr	r3, .L50+8
 489 0010 D97A     		ldrb	r1, [r3, #11]	@ zero_extendqisi2
 490 0012 9A7A     		ldrb	r2, [r3, #10]	@ zero_extendqisi2
 491 0014 02EB0122 		add	r2, r2, r1, lsl #8
 492 0018 92B2     		uxth	r2, r2
 493 001a ADF80620 		strh	r2, [sp, #6]	@ movhi
 788:Generated_Source\PSoC5/CAN_TX_RX_func.c ****         volatile uint16_t charger_current = (CAN_RX_DATA_BYTE3(CAN_RX_MAILBOX_charger_status) << 8)
 494              		.loc 1 788 0
 495 001e 597A     		ldrb	r1, [r3, #9]	@ zero_extendqisi2
 496 0020 1A7A     		ldrb	r2, [r3, #8]	@ zero_extendqisi2
 497 0022 02EB0122 		add	r2, r2, r1, lsl #8
 498 0026 92B2     		uxth	r2, r2
 499 0028 ADF80420 		strh	r2, [sp, #4]	@ movhi
 789:Generated_Source\PSoC5/CAN_TX_RX_func.c ****         charger_status = CAN_RX_DATA_BYTE5(CAN_RX_MAILBOX_charger_status);
 500              		.loc 1 789 0
 501 002c D97B     		ldrb	r1, [r3, #15]	@ zero_extendqisi2
 502 002e 074A     		ldr	r2, .L50+12
 503 0030 1170     		strb	r1, [r2]
 790:Generated_Source\PSoC5/CAN_TX_RX_func.c **** 
 791:Generated_Source\PSoC5/CAN_TX_RX_func.c ****         /* `#END` */
 792:Generated_Source\PSoC5/CAN_TX_RX_func.c **** 
 793:Generated_Source\PSoC5/CAN_TX_RX_func.c ****         #ifdef CAN_RECEIVE_MSG_charger_status_CALLBACK
 794:Generated_Source\PSoC5/CAN_TX_RX_func.c ****             CAN_ReceiveMsg_charger_status_Callback();
 795:Generated_Source\PSoC5/CAN_TX_RX_func.c ****         #endif /* CAN_RECEIVE_MSG_charger_status_CALLBACK */
 796:Generated_Source\PSoC5/CAN_TX_RX_func.c **** 
 797:Generated_Source\PSoC5/CAN_TX_RX_func.c ****         CAN_RX[2u].rxcmd.byte[0u] |= CAN_RX_ACK_MSG;
ARM GAS  C:\Users\leoja\AppData\Local\Temp\cctKjm6z.s 			page 24


 504              		.loc 1 797 0
 505 0032 1A78     		ldrb	r2, [r3]	@ zero_extendqisi2
 506 0034 42F00102 		orr	r2, r2, #1
 507 0038 1A70     		strb	r2, [r3]
 798:Generated_Source\PSoC5/CAN_TX_RX_func.c ****     }
 508              		.loc 1 798 0
 509 003a 02B0     		add	sp, sp, #8
 510              		.cfi_def_cfa_offset 0
 511              		@ sp needed
 512 003c 7047     		bx	lr
 513              	.L51:
 514 003e 00BF     		.align	2
 515              	.L50:
 516 0040 00000000 		.word	charger_attached
 517 0044 00000000 		.word	loops_since_charger_message
 518 0048 E0A00040 		.word	1073783008
 519 004c 00000000 		.word	charger_status
 520              		.cfi_endproc
 521              	.LFE7:
 522              		.size	CAN_ReceiveMsgcharger_status, .-CAN_ReceiveMsgcharger_status
 523              		.section	.text.CAN_ReceiveMsgMC_State,"ax",%progbits
 524              		.align	2
 525              		.global	CAN_ReceiveMsgMC_State
 526              		.thumb
 527              		.thumb_func
 528              		.type	CAN_ReceiveMsgMC_State, %function
 529              	CAN_ReceiveMsgMC_State:
 530              	.LFB8:
 799:Generated_Source\PSoC5/CAN_TX_RX_func.c **** #endif /* CAN_RX2_FUNC_ENABLE */
 800:Generated_Source\PSoC5/CAN_TX_RX_func.c **** 
 801:Generated_Source\PSoC5/CAN_TX_RX_func.c **** 
 802:Generated_Source\PSoC5/CAN_TX_RX_func.c **** #if (CAN_RX3_FUNC_ENABLE)
 803:Generated_Source\PSoC5/CAN_TX_RX_func.c ****     /*******************************************************************************
 804:Generated_Source\PSoC5/CAN_TX_RX_func.c ****     * FUNCTION NAME:   CAN_ReceiveMsgMC_State
 805:Generated_Source\PSoC5/CAN_TX_RX_func.c ****     ********************************************************************************
 806:Generated_Source\PSoC5/CAN_TX_RX_func.c ****     *
 807:Generated_Source\PSoC5/CAN_TX_RX_func.c ****     * Summary:
 808:Generated_Source\PSoC5/CAN_TX_RX_func.c ****     *  This function is the entry point to Receive Message 3 Interrupt. Clears the
 809:Generated_Source\PSoC5/CAN_TX_RX_func.c ****     *  Receive Message 3 interrupt flag. Generated only for the Receive mailbox
 810:Generated_Source\PSoC5/CAN_TX_RX_func.c ****     *  designed as Full.
 811:Generated_Source\PSoC5/CAN_TX_RX_func.c ****     *
 812:Generated_Source\PSoC5/CAN_TX_RX_func.c ****     * Parameters:
 813:Generated_Source\PSoC5/CAN_TX_RX_func.c ****     *  None.
 814:Generated_Source\PSoC5/CAN_TX_RX_func.c ****     *
 815:Generated_Source\PSoC5/CAN_TX_RX_func.c ****     * Return:
 816:Generated_Source\PSoC5/CAN_TX_RX_func.c ****     *  None.
 817:Generated_Source\PSoC5/CAN_TX_RX_func.c ****     *
 818:Generated_Source\PSoC5/CAN_TX_RX_func.c ****     * Reentrant:
 819:Generated_Source\PSoC5/CAN_TX_RX_func.c ****     *  Depends on the Customer code.
 820:Generated_Source\PSoC5/CAN_TX_RX_func.c ****     *
 821:Generated_Source\PSoC5/CAN_TX_RX_func.c ****     *******************************************************************************/
 822:Generated_Source\PSoC5/CAN_TX_RX_func.c ****     void CAN_ReceiveMsgMC_State(void) 
 823:Generated_Source\PSoC5/CAN_TX_RX_func.c ****     {
 531              		.loc 1 823 0
 532              		.cfi_startproc
 533              		@ args = 0, pretend = 0, frame = 0
 534              		@ frame_needed = 0, uses_anonymous_args = 0
ARM GAS  C:\Users\leoja\AppData\Local\Temp\cctKjm6z.s 			page 25


 535              		@ link register save eliminated.
 824:Generated_Source\PSoC5/CAN_TX_RX_func.c ****         /* `#START MESSAGE_MC_State_RECEIVED` */
 825:Generated_Source\PSoC5/CAN_TX_RX_func.c ****         
 826:Generated_Source\PSoC5/CAN_TX_RX_func.c ****         loops_since_mc_message = 0;
 536              		.loc 1 826 0
 537 0000 0022     		movs	r2, #0
 538 0002 074B     		ldr	r3, .L53
 539 0004 1A80     		strh	r2, [r3]	@ movhi
 827:Generated_Source\PSoC5/CAN_TX_RX_func.c ****         
 828:Generated_Source\PSoC5/CAN_TX_RX_func.c ****         mc_vsm_state = CAN_RX_DATA_BYTE1(CAN_RX_MAILBOX_MC_State);
 540              		.loc 1 828 0
 541 0006 074B     		ldr	r3, .L53+4
 542 0008 D97A     		ldrb	r1, [r3, #11]	@ zero_extendqisi2
 543 000a 074A     		ldr	r2, .L53+8
 544 000c 1170     		strb	r1, [r2]
 829:Generated_Source\PSoC5/CAN_TX_RX_func.c ****         mc_discharge_state = (CAN_RX_DATA_BYTE5(CAN_RX_MAILBOX_MC_State) >> 5) & 0x07; //bits 5-7
 545              		.loc 1 829 0
 546 000e DA7B     		ldrb	r2, [r3, #15]	@ zero_extendqisi2
 547 0010 5209     		lsrs	r2, r2, #5
 548 0012 0649     		ldr	r1, .L53+12
 549 0014 0A70     		strb	r2, [r1]
 830:Generated_Source\PSoC5/CAN_TX_RX_func.c **** 
 831:Generated_Source\PSoC5/CAN_TX_RX_func.c ****         /* `#END` */
 832:Generated_Source\PSoC5/CAN_TX_RX_func.c **** 
 833:Generated_Source\PSoC5/CAN_TX_RX_func.c ****         #ifdef CAN_RECEIVE_MSG_MC_State_CALLBACK
 834:Generated_Source\PSoC5/CAN_TX_RX_func.c ****             CAN_ReceiveMsg_MC_State_Callback();
 835:Generated_Source\PSoC5/CAN_TX_RX_func.c ****         #endif /* CAN_RECEIVE_MSG_MC_State_CALLBACK */
 836:Generated_Source\PSoC5/CAN_TX_RX_func.c **** 
 837:Generated_Source\PSoC5/CAN_TX_RX_func.c ****         CAN_RX[3u].rxcmd.byte[0u] |= CAN_RX_ACK_MSG;
 550              		.loc 1 837 0
 551 0016 1A78     		ldrb	r2, [r3]	@ zero_extendqisi2
 552 0018 42F00102 		orr	r2, r2, #1
 553 001c 1A70     		strb	r2, [r3]
 554 001e 7047     		bx	lr
 555              	.L54:
 556              		.align	2
 557              	.L53:
 558 0020 00000000 		.word	loops_since_mc_message
 559 0024 00A10040 		.word	1073783040
 560 0028 00000000 		.word	mc_vsm_state
 561 002c 00000000 		.word	mc_discharge_state
 562              		.cfi_endproc
 563              	.LFE8:
 564              		.size	CAN_ReceiveMsgMC_State, .-CAN_ReceiveMsgMC_State
 565              		.section	.text.CAN_ReceiveMsgMC_Fault,"ax",%progbits
 566              		.align	2
 567              		.global	CAN_ReceiveMsgMC_Fault
 568              		.thumb
 569              		.thumb_func
 570              		.type	CAN_ReceiveMsgMC_Fault, %function
 571              	CAN_ReceiveMsgMC_Fault:
 572              	.LFB9:
 838:Generated_Source\PSoC5/CAN_TX_RX_func.c ****     }
 839:Generated_Source\PSoC5/CAN_TX_RX_func.c **** #endif /* CAN_RX3_FUNC_ENABLE */
 840:Generated_Source\PSoC5/CAN_TX_RX_func.c **** 
 841:Generated_Source\PSoC5/CAN_TX_RX_func.c **** 
 842:Generated_Source\PSoC5/CAN_TX_RX_func.c **** #if (CAN_RX4_FUNC_ENABLE)
ARM GAS  C:\Users\leoja\AppData\Local\Temp\cctKjm6z.s 			page 26


 843:Generated_Source\PSoC5/CAN_TX_RX_func.c ****     /*******************************************************************************
 844:Generated_Source\PSoC5/CAN_TX_RX_func.c ****     * FUNCTION NAME:   CAN_ReceiveMsgMC_Fault
 845:Generated_Source\PSoC5/CAN_TX_RX_func.c ****     ********************************************************************************
 846:Generated_Source\PSoC5/CAN_TX_RX_func.c ****     *
 847:Generated_Source\PSoC5/CAN_TX_RX_func.c ****     * Summary:
 848:Generated_Source\PSoC5/CAN_TX_RX_func.c ****     *  This function is the entry point to Receive Message 4 Interrupt. Clears the
 849:Generated_Source\PSoC5/CAN_TX_RX_func.c ****     *  Receive Message 4 interrupt flag. Generated only for the Receive mailbox
 850:Generated_Source\PSoC5/CAN_TX_RX_func.c ****     *  designed as Full.
 851:Generated_Source\PSoC5/CAN_TX_RX_func.c ****     *
 852:Generated_Source\PSoC5/CAN_TX_RX_func.c ****     * Parameters:
 853:Generated_Source\PSoC5/CAN_TX_RX_func.c ****     *  None.
 854:Generated_Source\PSoC5/CAN_TX_RX_func.c ****     *
 855:Generated_Source\PSoC5/CAN_TX_RX_func.c ****     * Return:
 856:Generated_Source\PSoC5/CAN_TX_RX_func.c ****     *  None.
 857:Generated_Source\PSoC5/CAN_TX_RX_func.c ****     *
 858:Generated_Source\PSoC5/CAN_TX_RX_func.c ****     * Reentrant:
 859:Generated_Source\PSoC5/CAN_TX_RX_func.c ****     *  Depends on the Customer code.
 860:Generated_Source\PSoC5/CAN_TX_RX_func.c ****     *
 861:Generated_Source\PSoC5/CAN_TX_RX_func.c ****     *******************************************************************************/
 862:Generated_Source\PSoC5/CAN_TX_RX_func.c ****     void CAN_ReceiveMsgMC_Fault(void) 
 863:Generated_Source\PSoC5/CAN_TX_RX_func.c ****     {
 573              		.loc 1 863 0
 574              		.cfi_startproc
 575              		@ args = 0, pretend = 0, frame = 0
 576              		@ frame_needed = 0, uses_anonymous_args = 0
 577              		@ link register save eliminated.
 578 0000 10B4     		push	{r4}
 579              		.cfi_def_cfa_offset 4
 580              		.cfi_offset 4, -4
 864:Generated_Source\PSoC5/CAN_TX_RX_func.c ****         /* `#START MESSAGE_MC_Fault_RECEIVED` */
 865:Generated_Source\PSoC5/CAN_TX_RX_func.c ****         
 866:Generated_Source\PSoC5/CAN_TX_RX_func.c ****         loops_since_mc_message = 0;
 581              		.loc 1 866 0
 582 0002 0020     		movs	r0, #0
 583 0004 0F4B     		ldr	r3, .L57
 584 0006 1880     		strh	r0, [r3]	@ movhi
 867:Generated_Source\PSoC5/CAN_TX_RX_func.c ****         
 868:Generated_Source\PSoC5/CAN_TX_RX_func.c ****         mc_post_faults = (CAN_RX_DATA_BYTE4(CAN_RX_MAILBOX_MC_Fault) << 24);
 585              		.loc 1 868 0
 586 0008 0F4B     		ldr	r3, .L57+4
 587 000a 1A7A     		ldrb	r2, [r3, #8]	@ zero_extendqisi2
 588 000c 0F49     		ldr	r1, .L57+8
 589 000e 0880     		strh	r0, [r1]	@ movhi
 869:Generated_Source\PSoC5/CAN_TX_RX_func.c ****         mc_post_faults += (CAN_RX_DATA_BYTE3(CAN_RX_MAILBOX_MC_Fault) << 16);
 590              		.loc 1 869 0
 591 0010 5A7A     		ldrb	r2, [r3, #9]	@ zero_extendqisi2
 592 0012 0880     		strh	r0, [r1]	@ movhi
 870:Generated_Source\PSoC5/CAN_TX_RX_func.c ****         mc_post_faults += (CAN_RX_DATA_BYTE2(CAN_RX_MAILBOX_MC_Fault) << 8);
 593              		.loc 1 870 0
 594 0014 9A7A     		ldrb	r2, [r3, #10]	@ zero_extendqisi2
 595 0016 1202     		lsls	r2, r2, #8
 596 0018 0A80     		strh	r2, [r1]	@ movhi
 871:Generated_Source\PSoC5/CAN_TX_RX_func.c ****         mc_post_faults += CAN_RX_DATA_BYTE1(CAN_RX_MAILBOX_MC_Fault);
 597              		.loc 1 871 0
 598 001a DC7A     		ldrb	r4, [r3, #11]	@ zero_extendqisi2
 599 001c 2244     		add	r2, r2, r4
 600 001e 0A80     		strh	r2, [r1]	@ movhi
ARM GAS  C:\Users\leoja\AppData\Local\Temp\cctKjm6z.s 			page 27


 872:Generated_Source\PSoC5/CAN_TX_RX_func.c ****         
 873:Generated_Source\PSoC5/CAN_TX_RX_func.c ****         mc_run_faults = (CAN_RX_DATA_BYTE8(CAN_RX_MAILBOX_MC_Fault) << 24);
 601              		.loc 1 873 0
 602 0020 1A7B     		ldrb	r2, [r3, #12]	@ zero_extendqisi2
 603 0022 0B49     		ldr	r1, .L57+12
 604 0024 0880     		strh	r0, [r1]	@ movhi
 874:Generated_Source\PSoC5/CAN_TX_RX_func.c ****         mc_run_faults += (CAN_RX_DATA_BYTE7(CAN_RX_MAILBOX_MC_Fault) << 16);
 605              		.loc 1 874 0
 606 0026 5A7B     		ldrb	r2, [r3, #13]	@ zero_extendqisi2
 607 0028 0880     		strh	r0, [r1]	@ movhi
 875:Generated_Source\PSoC5/CAN_TX_RX_func.c ****         mc_run_faults += (CAN_RX_DATA_BYTE6(CAN_RX_MAILBOX_MC_Fault) << 8);
 608              		.loc 1 875 0
 609 002a 9A7B     		ldrb	r2, [r3, #14]	@ zero_extendqisi2
 610 002c 1202     		lsls	r2, r2, #8
 611 002e 0A80     		strh	r2, [r1]	@ movhi
 876:Generated_Source\PSoC5/CAN_TX_RX_func.c ****         mc_run_faults += CAN_RX_DATA_BYTE5(CAN_RX_MAILBOX_MC_Fault);
 612              		.loc 1 876 0
 613 0030 D87B     		ldrb	r0, [r3, #15]	@ zero_extendqisi2
 614 0032 0244     		add	r2, r2, r0
 615 0034 0A80     		strh	r2, [r1]	@ movhi
 877:Generated_Source\PSoC5/CAN_TX_RX_func.c ****         
 878:Generated_Source\PSoC5/CAN_TX_RX_func.c ****         /* `#END` */
 879:Generated_Source\PSoC5/CAN_TX_RX_func.c **** 
 880:Generated_Source\PSoC5/CAN_TX_RX_func.c ****         #ifdef CAN_RECEIVE_MSG_MC_Fault_CALLBACK
 881:Generated_Source\PSoC5/CAN_TX_RX_func.c ****             CAN_ReceiveMsg_MC_Fault_Callback();
 882:Generated_Source\PSoC5/CAN_TX_RX_func.c ****         #endif /* CAN_RECEIVE_MSG_MC_Fault_CALLBACK */
 883:Generated_Source\PSoC5/CAN_TX_RX_func.c **** 
 884:Generated_Source\PSoC5/CAN_TX_RX_func.c ****         CAN_RX[4u].rxcmd.byte[0u] |= CAN_RX_ACK_MSG;
 616              		.loc 1 884 0
 617 0036 1A78     		ldrb	r2, [r3]	@ zero_extendqisi2
 618 0038 42F00102 		orr	r2, r2, #1
 619 003c 1A70     		strb	r2, [r3]
 885:Generated_Source\PSoC5/CAN_TX_RX_func.c ****     }
 620              		.loc 1 885 0
 621 003e 10BC     		pop	{r4}
 622              		.cfi_restore 4
 623              		.cfi_def_cfa_offset 0
 624 0040 7047     		bx	lr
 625              	.L58:
 626 0042 00BF     		.align	2
 627              	.L57:
 628 0044 00000000 		.word	loops_since_mc_message
 629 0048 20A10040 		.word	1073783072
 630 004c 00000000 		.word	mc_post_faults
 631 0050 00000000 		.word	mc_run_faults
 632              		.cfi_endproc
 633              	.LFE9:
 634              		.size	CAN_ReceiveMsgMC_Fault, .-CAN_ReceiveMsgMC_Fault
 635              		.section	.text.CAN_ReceiveMsgMC_Voltage,"ax",%progbits
 636              		.align	2
 637              		.global	CAN_ReceiveMsgMC_Voltage
 638              		.thumb
 639              		.thumb_func
 640              		.type	CAN_ReceiveMsgMC_Voltage, %function
 641              	CAN_ReceiveMsgMC_Voltage:
 642              	.LFB10:
 886:Generated_Source\PSoC5/CAN_TX_RX_func.c **** #endif /* CAN_RX4_FUNC_ENABLE */
ARM GAS  C:\Users\leoja\AppData\Local\Temp\cctKjm6z.s 			page 28


 887:Generated_Source\PSoC5/CAN_TX_RX_func.c **** 
 888:Generated_Source\PSoC5/CAN_TX_RX_func.c **** 
 889:Generated_Source\PSoC5/CAN_TX_RX_func.c **** #if (CAN_RX5_FUNC_ENABLE)
 890:Generated_Source\PSoC5/CAN_TX_RX_func.c ****     /*******************************************************************************
 891:Generated_Source\PSoC5/CAN_TX_RX_func.c ****     * FUNCTION NAME:   CAN_ReceiveMsgMC_Voltage
 892:Generated_Source\PSoC5/CAN_TX_RX_func.c ****     ********************************************************************************
 893:Generated_Source\PSoC5/CAN_TX_RX_func.c ****     *
 894:Generated_Source\PSoC5/CAN_TX_RX_func.c ****     * Summary:
 895:Generated_Source\PSoC5/CAN_TX_RX_func.c ****     *  This function is the entry point to Receive Message 5 Interrupt. Clears the
 896:Generated_Source\PSoC5/CAN_TX_RX_func.c ****     *  Receive Message 5 interrupt flag. Generated only for the Receive mailbox
 897:Generated_Source\PSoC5/CAN_TX_RX_func.c ****     *  designed as Full.
 898:Generated_Source\PSoC5/CAN_TX_RX_func.c ****     *
 899:Generated_Source\PSoC5/CAN_TX_RX_func.c ****     * Parameters:
 900:Generated_Source\PSoC5/CAN_TX_RX_func.c ****     *  None.
 901:Generated_Source\PSoC5/CAN_TX_RX_func.c ****     *
 902:Generated_Source\PSoC5/CAN_TX_RX_func.c ****     * Return:
 903:Generated_Source\PSoC5/CAN_TX_RX_func.c ****     *  None.
 904:Generated_Source\PSoC5/CAN_TX_RX_func.c ****     *
 905:Generated_Source\PSoC5/CAN_TX_RX_func.c ****     * Reentrant:
 906:Generated_Source\PSoC5/CAN_TX_RX_func.c ****     *  Depends on the Customer code.
 907:Generated_Source\PSoC5/CAN_TX_RX_func.c ****     *
 908:Generated_Source\PSoC5/CAN_TX_RX_func.c ****     *******************************************************************************/
 909:Generated_Source\PSoC5/CAN_TX_RX_func.c ****     void CAN_ReceiveMsgMC_Voltage(void) 
 910:Generated_Source\PSoC5/CAN_TX_RX_func.c ****     {
 643              		.loc 1 910 0
 644              		.cfi_startproc
 645              		@ args = 0, pretend = 0, frame = 0
 646              		@ frame_needed = 0, uses_anonymous_args = 0
 647              		@ link register save eliminated.
 911:Generated_Source\PSoC5/CAN_TX_RX_func.c ****         /* `#START MESSAGE_MC_Voltage_RECEIVED` */
 912:Generated_Source\PSoC5/CAN_TX_RX_func.c ****         
 913:Generated_Source\PSoC5/CAN_TX_RX_func.c ****         loops_since_mc_message = 0;
 648              		.loc 1 913 0
 649 0000 0022     		movs	r2, #0
 650 0002 074B     		ldr	r3, .L60
 651 0004 1A80     		strh	r2, [r3]	@ movhi
 914:Generated_Source\PSoC5/CAN_TX_RX_func.c ****         
 915:Generated_Source\PSoC5/CAN_TX_RX_func.c ****         mc_voltage = CAN_RX_DATA_BYTE1(CAN_RX_MAILBOX_MC_Voltage);
 652              		.loc 1 915 0
 653 0006 074A     		ldr	r2, .L60+4
 654 0008 D37A     		ldrb	r3, [r2, #11]	@ zero_extendqisi2
 655 000a 0749     		ldr	r1, .L60+8
 656 000c 0B80     		strh	r3, [r1]	@ movhi
 916:Generated_Source\PSoC5/CAN_TX_RX_func.c ****         mc_voltage |= (CAN_RX_DATA_BYTE2(CAN_RX_MAILBOX_MC_Voltage) << 8);
 657              		.loc 1 916 0
 658 000e 907A     		ldrb	r0, [r2, #10]	@ zero_extendqisi2
 659 0010 43EA0023 		orr	r3, r3, r0, lsl #8
 660 0014 0B80     		strh	r3, [r1]	@ movhi
 917:Generated_Source\PSoC5/CAN_TX_RX_func.c ****         
 918:Generated_Source\PSoC5/CAN_TX_RX_func.c ****         
 919:Generated_Source\PSoC5/CAN_TX_RX_func.c ****         /* `#END` */
 920:Generated_Source\PSoC5/CAN_TX_RX_func.c **** 
 921:Generated_Source\PSoC5/CAN_TX_RX_func.c ****         #ifdef CAN_RECEIVE_MSG_MC_Voltage_CALLBACK
 922:Generated_Source\PSoC5/CAN_TX_RX_func.c ****             CAN_ReceiveMsg_MC_Voltage_Callback();
 923:Generated_Source\PSoC5/CAN_TX_RX_func.c ****         #endif /* CAN_RECEIVE_MSG_MC_Voltage_CALLBACK */
 924:Generated_Source\PSoC5/CAN_TX_RX_func.c **** 
 925:Generated_Source\PSoC5/CAN_TX_RX_func.c ****         CAN_RX[5u].rxcmd.byte[0u] |= CAN_RX_ACK_MSG;
ARM GAS  C:\Users\leoja\AppData\Local\Temp\cctKjm6z.s 			page 29


 661              		.loc 1 925 0
 662 0016 1378     		ldrb	r3, [r2]	@ zero_extendqisi2
 663 0018 43F00103 		orr	r3, r3, #1
 664 001c 1370     		strb	r3, [r2]
 665 001e 7047     		bx	lr
 666              	.L61:
 667              		.align	2
 668              	.L60:
 669 0020 00000000 		.word	loops_since_mc_message
 670 0024 40A10040 		.word	1073783104
 671 0028 00000000 		.word	mc_voltage
 672              		.cfi_endproc
 673              	.LFE10:
 674              		.size	CAN_ReceiveMsgMC_Voltage, .-CAN_ReceiveMsgMC_Voltage
 675              		.section	.text.CAN_ReceiveMsgMC_Command,"ax",%progbits
 676              		.align	2
 677              		.global	CAN_ReceiveMsgMC_Command
 678              		.thumb
 679              		.thumb_func
 680              		.type	CAN_ReceiveMsgMC_Command, %function
 681              	CAN_ReceiveMsgMC_Command:
 682              	.LFB11:
 926:Generated_Source\PSoC5/CAN_TX_RX_func.c ****     }
 927:Generated_Source\PSoC5/CAN_TX_RX_func.c **** #endif /* CAN_RX5_FUNC_ENABLE */
 928:Generated_Source\PSoC5/CAN_TX_RX_func.c **** 
 929:Generated_Source\PSoC5/CAN_TX_RX_func.c **** 
 930:Generated_Source\PSoC5/CAN_TX_RX_func.c **** #if (CAN_RX6_FUNC_ENABLE)
 931:Generated_Source\PSoC5/CAN_TX_RX_func.c ****     /*******************************************************************************
 932:Generated_Source\PSoC5/CAN_TX_RX_func.c ****     * FUNCTION NAME:   CAN_ReceiveMsgMC_Command
 933:Generated_Source\PSoC5/CAN_TX_RX_func.c ****     ********************************************************************************
 934:Generated_Source\PSoC5/CAN_TX_RX_func.c ****     *
 935:Generated_Source\PSoC5/CAN_TX_RX_func.c ****     * Summary:
 936:Generated_Source\PSoC5/CAN_TX_RX_func.c ****     *  This function is the entry point to Receive Message 6 Interrupt. Clears the
 937:Generated_Source\PSoC5/CAN_TX_RX_func.c ****     *  Receive Message 6 interrupt flag. Generated only for the Receive mailbox
 938:Generated_Source\PSoC5/CAN_TX_RX_func.c ****     *  designed as Full.
 939:Generated_Source\PSoC5/CAN_TX_RX_func.c ****     *
 940:Generated_Source\PSoC5/CAN_TX_RX_func.c ****     * Parameters:
 941:Generated_Source\PSoC5/CAN_TX_RX_func.c ****     *  None.
 942:Generated_Source\PSoC5/CAN_TX_RX_func.c ****     *
 943:Generated_Source\PSoC5/CAN_TX_RX_func.c ****     * Return:
 944:Generated_Source\PSoC5/CAN_TX_RX_func.c ****     *  None.
 945:Generated_Source\PSoC5/CAN_TX_RX_func.c ****     *
 946:Generated_Source\PSoC5/CAN_TX_RX_func.c ****     * Reentrant:
 947:Generated_Source\PSoC5/CAN_TX_RX_func.c ****     *  Depends on the Customer code.
 948:Generated_Source\PSoC5/CAN_TX_RX_func.c ****     *
 949:Generated_Source\PSoC5/CAN_TX_RX_func.c ****     *******************************************************************************/
 950:Generated_Source\PSoC5/CAN_TX_RX_func.c ****     void CAN_ReceiveMsgMC_Command(void) 
 951:Generated_Source\PSoC5/CAN_TX_RX_func.c ****     {
 683              		.loc 1 951 0
 684              		.cfi_startproc
 685              		@ args = 0, pretend = 0, frame = 0
 686              		@ frame_needed = 0, uses_anonymous_args = 0
 687              		@ link register save eliminated.
 952:Generated_Source\PSoC5/CAN_TX_RX_func.c ****         /* `#START MESSAGE_MC_Command_RECEIVED` */
 953:Generated_Source\PSoC5/CAN_TX_RX_func.c ****         //enable_commands = CAN_RX_DATA_BYTE6(CAN_RX_MAILBOX_MC_Command);
 954:Generated_Source\PSoC5/CAN_TX_RX_func.c ****         /* `#END` */
 955:Generated_Source\PSoC5/CAN_TX_RX_func.c **** 
ARM GAS  C:\Users\leoja\AppData\Local\Temp\cctKjm6z.s 			page 30


 956:Generated_Source\PSoC5/CAN_TX_RX_func.c ****         #ifdef CAN_RECEIVE_MSG_MC_Command_CALLBACK
 957:Generated_Source\PSoC5/CAN_TX_RX_func.c ****             CAN_ReceiveMsg_MC_Command_Callback();
 958:Generated_Source\PSoC5/CAN_TX_RX_func.c ****         #endif /* CAN_RECEIVE_MSG_MC_Command_CALLBACK */
 959:Generated_Source\PSoC5/CAN_TX_RX_func.c **** 
 960:Generated_Source\PSoC5/CAN_TX_RX_func.c ****         CAN_RX[6u].rxcmd.byte[0u] |= CAN_RX_ACK_MSG;
 688              		.loc 1 960 0
 689 0000 024A     		ldr	r2, .L63
 690 0002 1378     		ldrb	r3, [r2]	@ zero_extendqisi2
 691 0004 43F00103 		orr	r3, r3, #1
 692 0008 1370     		strb	r3, [r2]
 693 000a 7047     		bx	lr
 694              	.L64:
 695              		.align	2
 696              	.L63:
 697 000c 60A10040 		.word	1073783136
 698              		.cfi_endproc
 699              	.LFE11:
 700              		.size	CAN_ReceiveMsgMC_Command, .-CAN_ReceiveMsgMC_Command
 701              		.text
 702              	.Letext0:
 703              		.file 2 "c:\\program files (x86)\\cypress\\psoc creator\\4.4\\psoc creator\\import\\gnu\\arm\\5.4.
 704              		.file 3 "c:\\program files (x86)\\cypress\\psoc creator\\4.4\\psoc creator\\import\\gnu\\arm\\5.4.
 705              		.file 4 "Generated_Source\\PSoC5\\cytypes.h"
 706              		.file 5 "Generated_Source\\PSoC5\\CAN.h"