ARM GAS  C:\Users\leoja\AppData\Local\Temp\ccvYzhSH.s 			page 1


   1              		.syntax unified
   2              		.cpu cortex-m3
   3              		.fpu softvfp
   4              		.eabi_attribute 20, 1
   5              		.eabi_attribute 21, 1
   6              		.eabi_attribute 23, 3
   7              		.eabi_attribute 24, 1
   8              		.eabi_attribute 25, 1
   9              		.eabi_attribute 26, 1
  10              		.eabi_attribute 30, 1
  11              		.eabi_attribute 34, 1
  12              		.eabi_attribute 18, 4
  13              		.thumb
  14              		.syntax unified
  15              		.file	"can_manager.c"
  16              		.text
  17              	.Ltext0:
  18              		.cfi_sections	.debug_frame
  19              		.section	.text.can_send_PEI,"ax",%progbits
  20              		.align	2
  21              		.global	can_send_PEI
  22              		.thumb
  23              		.thumb_func
  24              		.type	can_send_PEI, %function
  25              	can_send_PEI:
  26              	.LFB63:
  27              		.file 1 "can_manager.c"
   1:can_manager.c **** /* ========================================
   2:can_manager.c ****  * Can API for FRUCD
   3:can_manager.c ****  * Schuyler Alschuler 2016 - 2017
   4:can_manager.c ****  * ========================================
   5:can_manager.c **** */
   6:can_manager.c **** 
   7:can_manager.c **** /*******************************************
   8:can_manager.c ****  * Used to interface dashboard with CAN bus
   9:can_manager.c ****  * some functinality can be found in CAN_TX_RX_func.c
  10:can_manager.c ****  * which is a generated source file
  11:can_manager.c ****  * see the can component of the top design for specific mailboxes
  12:can_manager.c ****  ******************************************/
  13:can_manager.c **** 
  14:can_manager.c **** #include "can_manager.h"
  15:can_manager.c **** #include "CAN.h"
  16:can_manager.c **** 
  17:can_manager.c **** extern uint8_t vcu_attached;
  18:can_manager.c **** extern uint8_t charger_attached;
  19:can_manager.c **** uint8_t baud = 0;
  20:can_manager.c **** 
  21:can_manager.c **** extern uint16_t loops_since_vcu_message;
  22:can_manager.c **** extern uint16_t loops_since_bms_message;
  23:can_manager.c **** extern uint16_t loops_since_mc_message;
  24:can_manager.c **** extern uint16_t loops_since_charger_message;
  25:can_manager.c **** extern uint16_t loop_counter;
  26:can_manager.c **** 
  27:can_manager.c **** //temporarily reporting AIR NEG/POS state on 3rd and 4th bytes of PCAN PEI message
  28:can_manager.c **** /* Used for debug purposes
  29:can_manager.c **** void can_send_interlock(uint8_t air_neg, uint8_t air_pos)
  30:can_manager.c **** {
ARM GAS  C:\Users\leoja\AppData\Local\Temp\ccvYzhSH.s 			page 2


  31:can_manager.c ****     uint8_t data[8] = {0};
  32:can_manager.c ****     data[3] = air_neg;
  33:can_manager.c ****     data[4] = air_pos;
  34:can_manager.c ****     can_send(data, 0x383); 
  35:can_manager.c **** }
  36:can_manager.c **** */
  37:can_manager.c **** 
  38:can_manager.c **** void can_send_PEI(int16_t current, uint8_t shutdown_flags)
  39:can_manager.c **** {
  28              		.loc 1 39 0
  29              		.cfi_startproc
  30              		@ args = 0, pretend = 0, frame = 0
  31              		@ frame_needed = 0, uses_anonymous_args = 0
  32              	.LVL0:
  33 0000 08B5     		push	{r3, lr}
  34              		.cfi_def_cfa_offset 8
  35              		.cfi_offset 3, -8
  36              		.cfi_offset 14, -4
  40:can_manager.c ****     CAN_TX_DATA_BYTE1(CAN_TX_MAILBOX_PEI_CURRENT) = HI8(current);
  37              		.loc 1 40 0
  38 0002 C0F30722 		ubfx	r2, r0, #8, #8
  39 0006 044B     		ldr	r3, .L3
  40 0008 DA72     		strb	r2, [r3, #11]
  41:can_manager.c ****     CAN_TX_DATA_BYTE2(CAN_TX_MAILBOX_PEI_CURRENT) = LO8(current);
  41              		.loc 1 41 0
  42 000a C0B2     		uxtb	r0, r0
  43              	.LVL1:
  44 000c 9872     		strb	r0, [r3, #10]
  42:can_manager.c ****     CAN_TX_DATA_BYTE3(CAN_TX_MAILBOX_PEI_CURRENT) = shutdown_flags;
  45              		.loc 1 42 0
  46 000e 5972     		strb	r1, [r3, #9]
  43:can_manager.c ****     
  44:can_manager.c ****     CAN_SendMsgPEI_CURRENT();   
  47              		.loc 1 44 0
  48 0010 FFF7FEFF 		bl	CAN_SendMsgPEI_CURRENT
  49              	.LVL2:
  50 0014 08BD     		pop	{r3, pc}
  51              	.L4:
  52 0016 00BF     		.align	2
  53              	.L3:
  54 0018 30A00040 		.word	1073782832
  55              		.cfi_endproc
  56              	.LFE63:
  57              		.size	can_send_PEI, .-can_send_PEI
  58              		.section	.text.can_send_CHARGER,"ax",%progbits
  59              		.align	2
  60              		.global	can_send_CHARGER
  61              		.thumb
  62              		.thumb_func
  63              		.type	can_send_CHARGER, %function
  64              	can_send_CHARGER:
  65              	.LFB64:
  45:can_manager.c **** }
  46:can_manager.c **** 
  47:can_manager.c **** void can_send_CHARGER(uint8_t charge_start){
  66              		.loc 1 47 0
  67              		.cfi_startproc
ARM GAS  C:\Users\leoja\AppData\Local\Temp\ccvYzhSH.s 			page 3


  68              		@ args = 0, pretend = 0, frame = 0
  69              		@ frame_needed = 0, uses_anonymous_args = 0
  70              	.LVL3:
  71 0000 08B5     		push	{r3, lr}
  72              		.cfi_def_cfa_offset 8
  73              		.cfi_offset 3, -8
  74              		.cfi_offset 14, -4
  48:can_manager.c ****     CAN_TX_DATA_BYTE1(CAN_TX_MAILBOX_PEI_CHARGER) = HI8(CHARGER_MAX_VOLTAGE);
  75              		.loc 1 48 0
  76 0002 064B     		ldr	r3, .L7
  77 0004 1322     		movs	r2, #19
  78 0006 DA72     		strb	r2, [r3, #11]
  49:can_manager.c ****     CAN_TX_DATA_BYTE2(CAN_TX_MAILBOX_PEI_CHARGER) = LO8(CHARGER_MAX_VOLTAGE);
  79              		.loc 1 49 0
  80 0008 B022     		movs	r2, #176
  81 000a 9A72     		strb	r2, [r3, #10]
  50:can_manager.c ****     CAN_TX_DATA_BYTE3(CAN_TX_MAILBOX_PEI_CHARGER) = HI8(CHARGER_MAX_CURRENT);
  82              		.loc 1 50 0
  83 000c 0022     		movs	r2, #0
  84 000e 5A72     		strb	r2, [r3, #9]
  51:can_manager.c ****     CAN_TX_DATA_BYTE4(CAN_TX_MAILBOX_PEI_CHARGER) = LO8(CHARGER_MAX_CURRENT);
  85              		.loc 1 51 0
  86 0010 1A22     		movs	r2, #26
  87 0012 1A72     		strb	r2, [r3, #8]
  52:can_manager.c ****     
  53:can_manager.c ****     CAN_TX_DATA_BYTE5(CAN_TX_MAILBOX_PEI_CHARGER) = charge_start;
  88              		.loc 1 53 0
  89 0014 D873     		strb	r0, [r3, #15]
  54:can_manager.c ****     
  55:can_manager.c ****     CAN_SendMsgPEI_CHARGER();  
  90              		.loc 1 55 0
  91 0016 FFF7FEFF 		bl	CAN_SendMsgPEI_CHARGER
  92              	.LVL4:
  93 001a 08BD     		pop	{r3, pc}
  94              	.L8:
  95              		.align	2
  96              	.L7:
  97 001c 20A00040 		.word	1073782816
  98              		.cfi_endproc
  99              	.LFE64:
 100              		.size	can_send_CHARGER, .-can_send_CHARGER
 101              		.section	.text.check_can,"ax",%progbits
 102              		.align	2
 103              		.global	check_can
 104              		.thumb
 105              		.thumb_func
 106              		.type	check_can, %function
 107              	check_can:
 108              	.LFB65:
  56:can_manager.c **** }
  57:can_manager.c **** 
  58:can_manager.c **** //checks to see if a can timout has occured and toggles can bus if so
  59:can_manager.c **** void check_can(){
 109              		.loc 1 59 0
 110              		.cfi_startproc
 111              		@ args = 0, pretend = 0, frame = 0
 112              		@ frame_needed = 0, uses_anonymous_args = 0
ARM GAS  C:\Users\leoja\AppData\Local\Temp\ccvYzhSH.s 			page 4


 113              		@ link register save eliminated.
  60:can_manager.c ****     //update timeout counters
  61:can_manager.c ****     loop_counter++;
 114              		.loc 1 61 0
 115 0000 0F4A     		ldr	r2, .L11
 116 0002 1388     		ldrh	r3, [r2]
 117 0004 0133     		adds	r3, r3, #1
 118 0006 9BB2     		uxth	r3, r3
 119 0008 1380     		strh	r3, [r2]	@ movhi
  62:can_manager.c ****     loops_since_bms_message++;
 120              		.loc 1 62 0
 121 000a 0E49     		ldr	r1, .L11+4
 122 000c 0A88     		ldrh	r2, [r1]
 123 000e 0132     		adds	r2, r2, #1
 124 0010 0A80     		strh	r2, [r1]	@ movhi
  63:can_manager.c ****     loops_since_charger_message++;
 125              		.loc 1 63 0
 126 0012 0D49     		ldr	r1, .L11+8
 127 0014 0A88     		ldrh	r2, [r1]
 128 0016 0132     		adds	r2, r2, #1
 129 0018 0A80     		strh	r2, [r1]	@ movhi
  64:can_manager.c ****     loops_since_mc_message++;
 130              		.loc 1 64 0
 131 001a 0C49     		ldr	r1, .L11+12
 132 001c 0A88     		ldrh	r2, [r1]
 133 001e 0132     		adds	r2, r2, #1
 134 0020 0A80     		strh	r2, [r1]	@ movhi
  65:can_manager.c ****     loops_since_vcu_message++;
 135              		.loc 1 65 0
 136 0022 0B49     		ldr	r1, .L11+16
 137 0024 0A88     		ldrh	r2, [r1]
 138 0026 0132     		adds	r2, r2, #1
 139 0028 0A80     		strh	r2, [r1]	@ movhi
  66:can_manager.c ****     
  67:can_manager.c ****     
  68:can_manager.c ****     if(charger_attached || vcu_attached){
 140              		.loc 1 68 0
 141 002a 0A4A     		ldr	r2, .L11+20
 142 002c 1278     		ldrb	r2, [r2]	@ zero_extendqisi2
 143 002e 32B9     		cbnz	r2, .L9
 144              		.loc 1 68 0 is_stmt 0 discriminator 1
 145 0030 094A     		ldr	r2, .L11+24
 146 0032 1278     		ldrb	r2, [r2]	@ zero_extendqisi2
 147 0034 1AB9     		cbnz	r2, .L9
  69:can_manager.c ****         return;
  70:can_manager.c ****     }
  71:can_manager.c ****     
  72:can_manager.c ****     if(loop_counter > CAN_BAUD_TOGGLE_LOOP_COUNT){
 148              		.loc 1 72 0 is_stmt 1
 149 0036 052B     		cmp	r3, #5
 150 0038 01D9     		bls	.L9
  73:can_manager.c ****         //CAN_toggle_baud();
  74:can_manager.c ****         loop_counter = 0;
 151              		.loc 1 74 0
 152 003a 014B     		ldr	r3, .L11
 153 003c 1A80     		strh	r2, [r3]	@ movhi
 154              	.L9:
ARM GAS  C:\Users\leoja\AppData\Local\Temp\ccvYzhSH.s 			page 5


 155 003e 7047     		bx	lr
 156              	.L12:
 157              		.align	2
 158              	.L11:
 159 0040 00000000 		.word	loop_counter
 160 0044 00000000 		.word	loops_since_bms_message
 161 0048 00000000 		.word	loops_since_charger_message
 162 004c 00000000 		.word	loops_since_mc_message
 163 0050 00000000 		.word	loops_since_vcu_message
 164 0054 00000000 		.word	charger_attached
 165 0058 00000000 		.word	vcu_attached
 166              		.cfi_endproc
 167              	.LFE65:
 168              		.size	check_can, .-check_can
 169              		.section	.text.CAN_to_125KB,"ax",%progbits
 170              		.align	2
 171              		.global	CAN_to_125KB
 172              		.thumb
 173              		.thumb_func
 174              		.type	CAN_to_125KB, %function
 175              	CAN_to_125KB:
 176              	.LFB67:
  75:can_manager.c ****     }
  76:can_manager.c **** }
  77:can_manager.c ****         
  78:can_manager.c **** 
  79:can_manager.c **** //switches PCAN between 125kb/s (vehicle) and 500kb/s (charger)
  80:can_manager.c **** void CAN_toggle_baud(){
  81:can_manager.c ****     if(baud == 0){
  82:can_manager.c ****         CAN_to_500KB();
  83:can_manager.c ****         baud = 1;
  84:can_manager.c ****     } else {
  85:can_manager.c ****         CAN_to_125KB();
  86:can_manager.c ****         baud = 0;
  87:can_manager.c ****     }
  88:can_manager.c **** }
  89:can_manager.c **** 
  90:can_manager.c **** void CAN_to_125KB(){
 177              		.loc 1 90 0
 178              		.cfi_startproc
 179              		@ args = 0, pretend = 0, frame = 0
 180              		@ frame_needed = 0, uses_anonymous_args = 0
 181 0000 08B5     		push	{r3, lr}
 182              		.cfi_def_cfa_offset 8
 183              		.cfi_offset 3, -8
 184              		.cfi_offset 14, -4
  91:can_manager.c ****     CAN_Stop();
 185              		.loc 1 91 0
 186 0002 FFF7FEFF 		bl	CAN_Stop
 187              	.LVL5:
  92:can_manager.c ****     CAN_Init();
 188              		.loc 1 92 0
 189 0006 FFF7FEFF 		bl	CAN_Init
 190              	.LVL6:
  93:can_manager.c ****     CAN_SetPreScaler(11);
 191              		.loc 1 93 0
 192 000a 0B20     		movs	r0, #11
ARM GAS  C:\Users\leoja\AppData\Local\Temp\ccvYzhSH.s 			page 6


 193 000c FFF7FEFF 		bl	CAN_SetPreScaler
 194              	.LVL7:
  94:can_manager.c ****     CAN_Enable();
 195              		.loc 1 94 0
 196 0010 FFF7FEFF 		bl	CAN_Enable
 197              	.LVL8:
 198 0014 08BD     		pop	{r3, pc}
 199              		.cfi_endproc
 200              	.LFE67:
 201              		.size	CAN_to_125KB, .-CAN_to_125KB
 202 0016 00BF     		.section	.text.CAN_to_500KB,"ax",%progbits
 203              		.align	2
 204              		.global	CAN_to_500KB
 205              		.thumb
 206              		.thumb_func
 207              		.type	CAN_to_500KB, %function
 208              	CAN_to_500KB:
 209              	.LFB68:
  95:can_manager.c **** }
  96:can_manager.c **** 
  97:can_manager.c **** void CAN_to_500KB(){
 210              		.loc 1 97 0
 211              		.cfi_startproc
 212              		@ args = 0, pretend = 0, frame = 0
 213              		@ frame_needed = 0, uses_anonymous_args = 0
 214 0000 08B5     		push	{r3, lr}
 215              		.cfi_def_cfa_offset 8
 216              		.cfi_offset 3, -8
 217              		.cfi_offset 14, -4
  98:can_manager.c ****     CAN_Stop();
 218              		.loc 1 98 0
 219 0002 FFF7FEFF 		bl	CAN_Stop
 220              	.LVL9:
  99:can_manager.c ****     CAN_Init();
 221              		.loc 1 99 0
 222 0006 FFF7FEFF 		bl	CAN_Init
 223              	.LVL10:
 100:can_manager.c ****     CAN_SetPreScaler(2);
 224              		.loc 1 100 0
 225 000a 0220     		movs	r0, #2
 226 000c FFF7FEFF 		bl	CAN_SetPreScaler
 227              	.LVL11:
 101:can_manager.c ****     CAN_Enable();
 228              		.loc 1 101 0
 229 0010 FFF7FEFF 		bl	CAN_Enable
 230              	.LVL12:
 231 0014 08BD     		pop	{r3, pc}
 232              		.cfi_endproc
 233              	.LFE68:
 234              		.size	CAN_to_500KB, .-CAN_to_500KB
 235 0016 00BF     		.section	.text.CAN_toggle_baud,"ax",%progbits
 236              		.align	2
 237              		.global	CAN_toggle_baud
 238              		.thumb
 239              		.thumb_func
 240              		.type	CAN_toggle_baud, %function
 241              	CAN_toggle_baud:
ARM GAS  C:\Users\leoja\AppData\Local\Temp\ccvYzhSH.s 			page 7


 242              	.LFB66:
  80:can_manager.c ****     if(baud == 0){
 243              		.loc 1 80 0
 244              		.cfi_startproc
 245              		@ args = 0, pretend = 0, frame = 0
 246              		@ frame_needed = 0, uses_anonymous_args = 0
 247 0000 08B5     		push	{r3, lr}
 248              		.cfi_def_cfa_offset 8
 249              		.cfi_offset 3, -8
 250              		.cfi_offset 14, -4
  81:can_manager.c ****         CAN_to_500KB();
 251              		.loc 1 81 0
 252 0002 074B     		ldr	r3, .L21
 253 0004 1B78     		ldrb	r3, [r3]	@ zero_extendqisi2
 254 0006 2BB9     		cbnz	r3, .L18
  82:can_manager.c ****         baud = 1;
 255              		.loc 1 82 0
 256 0008 FFF7FEFF 		bl	CAN_to_500KB
 257              	.LVL13:
  83:can_manager.c ****     } else {
 258              		.loc 1 83 0
 259 000c 0122     		movs	r2, #1
 260 000e 044B     		ldr	r3, .L21
 261 0010 1A70     		strb	r2, [r3]
 262 0012 08BD     		pop	{r3, pc}
 263              	.L18:
  85:can_manager.c ****         baud = 0;
 264              		.loc 1 85 0
 265 0014 FFF7FEFF 		bl	CAN_to_125KB
 266              	.LVL14:
  86:can_manager.c ****     }
 267              		.loc 1 86 0
 268 0018 0022     		movs	r2, #0
 269 001a 014B     		ldr	r3, .L21
 270 001c 1A70     		strb	r2, [r3]
 271 001e 08BD     		pop	{r3, pc}
 272              	.L22:
 273              		.align	2
 274              	.L21:
 275 0020 00000000 		.word	.LANCHOR0
 276              		.cfi_endproc
 277              	.LFE66:
 278              		.size	CAN_toggle_baud, .-CAN_toggle_baud
 279              		.global	baud
 280              		.bss
 281              		.set	.LANCHOR0,. + 0
 282              		.type	baud, %object
 283              		.size	baud, 1
 284              	baud:
 285 0000 00       		.space	1
 286              		.text
 287              	.Letext0:
 288              		.file 2 "c:\\program files (x86)\\cypress\\psoc creator\\4.4\\psoc creator\\import\\gnu\\arm\\5.4.
 289              		.file 3 "c:\\program files (x86)\\cypress\\psoc creator\\4.4\\psoc creator\\import\\gnu\\arm\\5.4.
 290              		.file 4 "Generated_Source\\PSoC5/cytypes.h"
 291              		.file 5 "Generated_Source\\PSoC5/CAN.h"
 292              		.file 6 "Generated_Source\\PSoC5/core_cm3.h"
ARM GAS  C:\Users\leoja\AppData\Local\Temp\ccvYzhSH.s 			page 8

