ARM GAS  C:\Users\leoja\AppData\Local\Temp\cctQdlaO.s 			page 1


   1              		.syntax unified
   2              		.cpu cortex-m3
   3              		.fpu softvfp
   4              		.eabi_attribute 20, 1
   5              		.eabi_attribute 21, 1
   6              		.eabi_attribute 23, 3
   7              		.eabi_attribute 24, 1
   8              		.eabi_attribute 25, 1
   9              		.eabi_attribute 26, 1
  10              		.eabi_attribute 30, 1
  11              		.eabi_attribute 34, 1
  12              		.eabi_attribute 18, 4
  13              		.thumb
  14              		.syntax unified
  15              		.file	"fsm.c"
  16              		.text
  17              	.Ltext0:
  18              		.cfi_sections	.debug_frame
  19              		.section	.text.inverter_enable,"ax",%progbits
  20              		.align	2
  21              		.global	inverter_enable
  22              		.thumb
  23              		.thumb_func
  24              		.type	inverter_enable, %function
  25              	inverter_enable:
  26              	.LFB63:
  27              		.file 1 "fsm.c"
   1:fsm.c         **** /* ========================================
   2:fsm.c         ****  *
   3:fsm.c         ****  * Copyright YOUR COMPANY, THE YEAR
   4:fsm.c         ****  * All Rights Reserved
   5:fsm.c         ****  * UNPUBLISHED, LICENSED SOFTWARE.
   6:fsm.c         ****  *
   7:fsm.c         ****  * CONFIDENTIAL AND PROPRIETARY INFORMATION
   8:fsm.c         ****  * WHICH IS THE PROPERTY OF your company.
   9:fsm.c         ****  *
  10:fsm.c         ****  * ========================================
  11:fsm.c         **** */
  12:fsm.c         **** 
  13:fsm.c         **** #include "fsm.h"
  14:fsm.c         **** 
  15:fsm.c         **** extern uint8_t pei_status;
  16:fsm.c         **** 
  17:fsm.c         **** //BMS Varialbes
  18:fsm.c         **** extern uint8_t bms_temp;
  19:fsm.c         **** extern uint16_t bms_status;
  20:fsm.c         **** extern uint8_t bms_soc;
  21:fsm.c         **** extern uint16_t bms_voltage;
  22:fsm.c         **** 
  23:fsm.c         **** //MC varialbes
  24:fsm.c         **** extern int16_t mc_voltage;
  25:fsm.c         **** extern uint8_t mc_vsm_state;
  26:fsm.c         **** extern uint8_t mc_discharge_state;
  27:fsm.c         **** extern uint16_t mc_post_faults;
  28:fsm.c         **** extern uint16_t mc_run_faults;
  29:fsm.c         **** 
  30:fsm.c         **** //VCU variables
ARM GAS  C:\Users\leoja\AppData\Local\Temp\cctQdlaO.s 			page 2


  31:fsm.c         **** extern uint8_t hv_requested;
  32:fsm.c         **** extern uint8_t vcu_state;
  33:fsm.c         **** extern uint8_t vcu_attached;
  34:fsm.c         **** 
  35:fsm.c         **** //charger variables
  36:fsm.c         **** extern uint8_t charger_attached;
  37:fsm.c         **** extern uint8_t charger_status;
  38:fsm.c         **** 
  39:fsm.c         **** //loop counters
  40:fsm.c         **** extern uint16_t loops_since_vcu_message;
  41:fsm.c         **** extern uint16_t loops_since_bms_message;
  42:fsm.c         **** extern uint16_t loops_since_mc_message;
  43:fsm.c         **** extern uint16_t loops_since_charger_message;
  44:fsm.c         **** 
  45:fsm.c         **** extern uint8_t enable_commands;
  46:fsm.c         **** 
  47:fsm.c         **** uint8_t inverter_enable() {
  28              		.loc 1 47 0
  29              		.cfi_startproc
  30              		@ args = 0, pretend = 0, frame = 0
  31              		@ frame_needed = 0, uses_anonymous_args = 0
  32 0000 10B5     		push	{r4, lr}
  33              		.cfi_def_cfa_offset 8
  34              		.cfi_offset 4, -8
  35              		.cfi_offset 14, -4
  48:fsm.c         ****     LCD_Position(1, 0);
  36              		.loc 1 48 0
  37 0002 0021     		movs	r1, #0
  38 0004 0120     		movs	r0, #1
  39 0006 FFF7FEFF 		bl	LCD_Position
  40              	.LVL0:
  49:fsm.c         ****     LCD_PrintInt8(enable_commands);
  41              		.loc 1 49 0
  42 000a 044C     		ldr	r4, .L3
  43 000c 2078     		ldrb	r0, [r4]	@ zero_extendqisi2
  44 000e FFF7FEFF 		bl	LCD_PrintInt8
  45              	.LVL1:
  50:fsm.c         ****     
  51:fsm.c         ****     return (enable_commands & 0x01) == 0x01;
  46              		.loc 1 51 0
  47 0012 2078     		ldrb	r0, [r4]	@ zero_extendqisi2
  52:fsm.c         **** }
  48              		.loc 1 52 0
  49 0014 00F00100 		and	r0, r0, #1
  50 0018 10BD     		pop	{r4, pc}
  51              	.L4:
  52 001a 00BF     		.align	2
  53              	.L3:
  54 001c 00000000 		.word	enable_commands
  55              		.cfi_endproc
  56              	.LFE63:
  57              		.size	inverter_enable, .-inverter_enable
  58              		.section	.text.hv_request,"ax",%progbits
  59              		.align	2
  60              		.global	hv_request
  61              		.thumb
  62              		.thumb_func
ARM GAS  C:\Users\leoja\AppData\Local\Temp\cctQdlaO.s 			page 3


  63              		.type	hv_request, %function
  64              	hv_request:
  65              	.LFB64:
  53:fsm.c         **** 
  54:fsm.c         **** uint8_t hv_request(){
  66              		.loc 1 54 0
  67              		.cfi_startproc
  68              		@ args = 0, pretend = 0, frame = 0
  69              		@ frame_needed = 0, uses_anonymous_args = 0
  70 0000 08B5     		push	{r3, lr}
  71              		.cfi_def_cfa_offset 8
  72              		.cfi_offset 3, -8
  73              		.cfi_offset 14, -4
  55:fsm.c         ****     if(vcu_attached) return hv_requested;     
  74              		.loc 1 55 0
  75 0002 064B     		ldr	r3, .L9
  76 0004 1B78     		ldrb	r3, [r3]	@ zero_extendqisi2
  77 0006 13B1     		cbz	r3, .L6
  78              		.loc 1 55 0 is_stmt 0 discriminator 1
  79 0008 054B     		ldr	r3, .L9+4
  80 000a 1878     		ldrb	r0, [r3]	@ zero_extendqisi2
  81 000c 08BD     		pop	{r3, pc}
  82              	.L6:
  56:fsm.c         ****     else if(charger_attached) return GPIO1_ESD_Read();
  83              		.loc 1 56 0 is_stmt 1
  84 000e 054B     		ldr	r3, .L9+8
  85 0010 1878     		ldrb	r0, [r3]	@ zero_extendqisi2
  86 0012 08B1     		cbz	r0, .L7
  87              		.loc 1 56 0 is_stmt 0 discriminator 1
  88 0014 FFF7FEFF 		bl	GPIO1_ESD_Read
  89              	.LVL2:
  90              	.L7:
  57:fsm.c         ****     
  58:fsm.c         ****     return 0;
  59:fsm.c         **** } 
  91              		.loc 1 59 0 is_stmt 1
  92 0018 08BD     		pop	{r3, pc}
  93              	.L10:
  94 001a 00BF     		.align	2
  95              	.L9:
  96 001c 00000000 		.word	vcu_attached
  97 0020 00000000 		.word	hv_requested
  98 0024 00000000 		.word	charger_attached
  99              		.cfi_endproc
 100              	.LFE64:
 101              		.size	hv_request, .-hv_request
 102              		.section	.text.hv_allowed,"ax",%progbits
 103              		.align	2
 104              		.global	hv_allowed
 105              		.thumb
 106              		.thumb_func
 107              		.type	hv_allowed, %function
 108              	hv_allowed:
 109              	.LFB65:
  60:fsm.c         **** 
  61:fsm.c         **** uint8_t hv_allowed(){
 110              		.loc 1 61 0
ARM GAS  C:\Users\leoja\AppData\Local\Temp\cctQdlaO.s 			page 4


 111              		.cfi_startproc
 112              		@ args = 0, pretend = 0, frame = 0
 113              		@ frame_needed = 0, uses_anonymous_args = 0
 114              		@ link register save eliminated.
  62:fsm.c         ****     
  63:fsm.c         ****     //if(pei_status & SHUTDOWN) return 0;  //shutdown circuit open
  64:fsm.c         ****     if(pei_status & BMS_TIMEOUT) return 0;
 115              		.loc 1 64 0
 116 0000 124B     		ldr	r3, .L18
 117 0002 1B78     		ldrb	r3, [r3]	@ zero_extendqisi2
 118 0004 13F00100 		ands	r0, r3, #1
 119 0008 18D1     		bne	.L14
 120 000a 03F00202 		and	r2, r3, #2
  65:fsm.c         ****     if(pei_status & VCU_CHARGER_TIMEOUT) return 0;
 121              		.loc 1 65 0
 122 000e 02F0FF01 		and	r1, r2, #255
 123 0012 D2B9     		cbnz	r2, .L12
  66:fsm.c         ****     
  67:fsm.c         ****     if(vcu_attached){
 124              		.loc 1 67 0
 125 0014 0E4A     		ldr	r2, .L18+4
 126 0016 1278     		ldrb	r2, [r2]	@ zero_extendqisi2
 127 0018 42B1     		cbz	r2, .L13
 128 001a 03F01002 		and	r2, r3, #16
  68:fsm.c         ****         if(pei_status & MC_FAULT) return 0;   //mc faults
 129              		.loc 1 68 0
 130 001e 02F0FF00 		and	r0, r2, #255
 131 0022 6AB9     		cbnz	r2, .L15
  69:fsm.c         ****         if(pei_status & MC_DISCHARGING) return 0;  //mc is trying to discharge
 132              		.loc 1 69 0
 133 0024 13F0400F 		tst	r3, #64
 134 0028 0CD0     		beq	.L16
 135 002a 7047     		bx	lr
 136              	.L13:
  70:fsm.c         ****         //if(pei_status & MC_TIMEOUT) return 0;
  71:fsm.c         ****         
  72:fsm.c         ****         return 1;
  73:fsm.c         ****         
  74:fsm.c         ****     } else if(charger_attached){
 137              		.loc 1 74 0
 138 002c 0949     		ldr	r1, .L18+8
 139 002e 0878     		ldrb	r0, [r1]	@ zero_extendqisi2
 140 0030 58B1     		cbz	r0, .L12
  75:fsm.c         ****         if(pei_status & CHARGER_FAULT) return 0;
 141              		.loc 1 75 0
 142 0032 13F0800F 		tst	r3, #128
 143 0036 07D0     		beq	.L17
 144 0038 1046     		mov	r0, r2
 145 003a 7047     		bx	lr
 146              	.L14:
  64:fsm.c         ****     if(pei_status & VCU_CHARGER_TIMEOUT) return 0;
 147              		.loc 1 64 0
 148 003c 0020     		movs	r0, #0
 149 003e 7047     		bx	lr
 150              	.L15:
  68:fsm.c         ****         if(pei_status & MC_DISCHARGING) return 0;  //mc is trying to discharge
 151              		.loc 1 68 0
ARM GAS  C:\Users\leoja\AppData\Local\Temp\cctQdlaO.s 			page 5


 152 0040 0846     		mov	r0, r1
 153 0042 7047     		bx	lr
 154              	.L16:
  72:fsm.c         ****         
 155              		.loc 1 72 0
 156 0044 0120     		movs	r0, #1
 157 0046 7047     		bx	lr
 158              	.L17:
  76:fsm.c         **** 
  77:fsm.c         ****         return 1;
 159              		.loc 1 77 0
 160 0048 0120     		movs	r0, #1
 161              	.L12:
  78:fsm.c         ****     } 
  79:fsm.c         ****     
  80:fsm.c         ****     return 0;
  81:fsm.c         **** }
 162              		.loc 1 81 0
 163 004a 7047     		bx	lr
 164              	.L19:
 165              		.align	2
 166              	.L18:
 167 004c 00000000 		.word	pei_status
 168 0050 00000000 		.word	vcu_attached
 169 0054 00000000 		.word	charger_attached
 170              		.cfi_endproc
 171              	.LFE65:
 172              		.size	hv_allowed, .-hv_allowed
 173              		.section	.text.precharge_ready,"ax",%progbits
 174              		.align	2
 175              		.global	precharge_ready
 176              		.thumb
 177              		.thumb_func
 178              		.type	precharge_ready, %function
 179              	precharge_ready:
 180              	.LFB66:
  82:fsm.c         **** 
  83:fsm.c         **** uint8_t precharge_ready(){
 181              		.loc 1 83 0
 182              		.cfi_startproc
 183              		@ args = 0, pretend = 0, frame = 0
 184              		@ frame_needed = 0, uses_anonymous_args = 0
 185              		@ link register save eliminated.
  84:fsm.c         ****     if(mc_vsm_state == PRECHARGE_INIT || mc_vsm_state == PRECHARGE_ACTIVE) return 1;
 186              		.loc 1 84 0
 187 0000 044B     		ldr	r3, .L23
 188 0002 1B78     		ldrb	r3, [r3]	@ zero_extendqisi2
 189 0004 013B     		subs	r3, r3, #1
 190 0006 DBB2     		uxtb	r3, r3
 191 0008 012B     		cmp	r3, #1
 192 000a 01D8     		bhi	.L22
 193 000c 0120     		movs	r0, #1
 194 000e 7047     		bx	lr
 195              	.L22:
  85:fsm.c         ****     
  86:fsm.c         ****     return 0;                
 196              		.loc 1 86 0
ARM GAS  C:\Users\leoja\AppData\Local\Temp\cctQdlaO.s 			page 6


 197 0010 0020     		movs	r0, #0
  87:fsm.c         **** }
 198              		.loc 1 87 0
 199 0012 7047     		bx	lr
 200              	.L24:
 201              		.align	2
 202              	.L23:
 203 0014 00000000 		.word	mc_vsm_state
 204              		.cfi_endproc
 205              	.LFE66:
 206              		.size	precharge_ready, .-precharge_ready
 207              		.global	__aeabi_ui2f
 208              		.global	__aeabi_f2d
 209              		.global	__aeabi_dmul
 210              		.global	__aeabi_d2uiz
 211              		.section	.text.precharge_complete,"ax",%progbits
 212              		.align	2
 213              		.global	precharge_complete
 214              		.thumb
 215              		.thumb_func
 216              		.type	precharge_complete, %function
 217              	precharge_complete:
 218              	.LFB67:
  88:fsm.c         **** 
  89:fsm.c         **** uint8_t precharge_complete(){    
 219              		.loc 1 89 0
 220              		.cfi_startproc
 221              		@ args = 0, pretend = 0, frame = 0
 222              		@ frame_needed = 0, uses_anonymous_args = 0
 223 0000 08B5     		push	{r3, lr}
 224              		.cfi_def_cfa_offset 8
 225              		.cfi_offset 3, -8
 226              		.cfi_offset 14, -4
  90:fsm.c         ****     uint16_t threshold = (uint16_t)(((float)bms_voltage)*0.95);
 227              		.loc 1 90 0
 228 0002 0D4B     		ldr	r3, .L27+8
 229 0004 1888     		ldrh	r0, [r3]
 230 0006 FFF7FEFF 		bl	__aeabi_ui2f
 231              	.LVL3:
 232 000a FFF7FEFF 		bl	__aeabi_f2d
 233              	.LVL4:
 234 000e 08A3     		adr	r3, .L27
 235 0010 D3E90023 		ldrd	r2, [r3]
 236 0014 FFF7FEFF 		bl	__aeabi_dmul
 237              	.LVL5:
 238 0018 FFF7FEFF 		bl	__aeabi_d2uiz
 239              	.LVL6:
 240 001c 80B2     		uxth	r0, r0
 241              	.LVL7:
  91:fsm.c         ****     return (mc_voltage > threshold);
 242              		.loc 1 91 0
 243 001e 074B     		ldr	r3, .L27+12
 244 0020 B3F90030 		ldrsh	r3, [r3]
  92:fsm.c         **** }
 245              		.loc 1 92 0
 246 0024 8342     		cmp	r3, r0
 247 0026 D4BF     		ite	le
ARM GAS  C:\Users\leoja\AppData\Local\Temp\cctQdlaO.s 			page 7


 248 0028 0020     		movle	r0, #0
 249              	.LVL8:
 250 002a 0120     		movgt	r0, #1
 251 002c 08BD     		pop	{r3, pc}
 252              	.L28:
 253 002e 00BF     		.align	3
 254              	.L27:
 255 0030 66666666 		.word	1717986918
 256 0034 6666EE3F 		.word	1072588390
 257 0038 00000000 		.word	bms_voltage
 258 003c 00000000 		.word	mc_voltage
 259              		.cfi_endproc
 260              	.LFE67:
 261              		.size	precharge_complete, .-precharge_complete
 262              		.section	.text.add_status,"ax",%progbits
 263              		.align	2
 264              		.global	add_status
 265              		.thumb
 266              		.thumb_func
 267              		.type	add_status, %function
 268              	add_status:
 269              	.LFB69:
  93:fsm.c         **** 
  94:fsm.c         **** 
  95:fsm.c         **** void update_status(){
  96:fsm.c         ****     pei_status = NORMAL;  //reset
  97:fsm.c         ****       
  98:fsm.c         ****     if(vcu_attached && (loops_since_vcu_message > CAN_TIMEOUT_LOOP_COUNT)) 
  99:fsm.c         ****         add_status(VCU_CHARGER_TIMEOUT);
 100:fsm.c         ****             
 101:fsm.c         ****     if(charger_attached && (loops_since_charger_message > CAN_TIMEOUT_LOOP_COUNT))
 102:fsm.c         ****         add_status(VCU_CHARGER_TIMEOUT);
 103:fsm.c         ****     
 104:fsm.c         ****     if(loops_since_mc_message > CAN_TIMEOUT_LOOP_COUNT) add_status(MC_TIMEOUT);
 105:fsm.c         ****     if(mc_post_faults != 0 || mc_run_faults != 0) add_status(MC_FAULT);
 106:fsm.c         ****     if(mc_discharge_state == DISCHARGE_ACTIVE) add_status(MC_DISCHARGING);
 107:fsm.c         ****     if(loops_since_bms_message > CAN_TIMEOUT_LOOP_COUNT) add_status(BMS_TIMEOUT);
 108:fsm.c         ****     if(SD_FINAL_Read() == 0) add_status(SHUTDOWN);     //shutdown circuit open
 109:fsm.c         ****     if((charger_status & 0b1011) != 0) add_status(CHARGER_FAULT); //check charger fault bits
 110:fsm.c         ****     
 111:fsm.c         **** }
 112:fsm.c         **** 
 113:fsm.c         **** void add_status(uint8_t status){
 270              		.loc 1 113 0
 271              		.cfi_startproc
 272              		@ args = 0, pretend = 0, frame = 0
 273              		@ frame_needed = 0, uses_anonymous_args = 0
 274              		@ link register save eliminated.
 275              	.LVL9:
 114:fsm.c         ****     pei_status |= status;
 276              		.loc 1 114 0
 277 0000 024A     		ldr	r2, .L30
 278 0002 1378     		ldrb	r3, [r2]	@ zero_extendqisi2
 279 0004 1843     		orrs	r0, r0, r3
 280              	.LVL10:
 281 0006 1070     		strb	r0, [r2]
 282 0008 7047     		bx	lr
ARM GAS  C:\Users\leoja\AppData\Local\Temp\cctQdlaO.s 			page 8


 283              	.L31:
 284 000a 00BF     		.align	2
 285              	.L30:
 286 000c 00000000 		.word	pei_status
 287              		.cfi_endproc
 288              	.LFE69:
 289              		.size	add_status, .-add_status
 290              		.section	.text.update_status,"ax",%progbits
 291              		.align	2
 292              		.global	update_status
 293              		.thumb
 294              		.thumb_func
 295              		.type	update_status, %function
 296              	update_status:
 297              	.LFB68:
  95:fsm.c         ****     pei_status = NORMAL;  //reset
 298              		.loc 1 95 0
 299              		.cfi_startproc
 300              		@ args = 0, pretend = 0, frame = 0
 301              		@ frame_needed = 0, uses_anonymous_args = 0
 302 0000 08B5     		push	{r3, lr}
 303              		.cfi_def_cfa_offset 8
 304              		.cfi_offset 3, -8
 305              		.cfi_offset 14, -4
  96:fsm.c         ****       
 306              		.loc 1 96 0
 307 0002 0022     		movs	r2, #0
 308 0004 214B     		ldr	r3, .L43
 309 0006 1A70     		strb	r2, [r3]
  98:fsm.c         ****         add_status(VCU_CHARGER_TIMEOUT);
 310              		.loc 1 98 0
 311 0008 214B     		ldr	r3, .L43+4
 312 000a 1B78     		ldrb	r3, [r3]	@ zero_extendqisi2
 313 000c 33B1     		cbz	r3, .L33
  98:fsm.c         ****         add_status(VCU_CHARGER_TIMEOUT);
 314              		.loc 1 98 0 is_stmt 0 discriminator 1
 315 000e 214B     		ldr	r3, .L43+8
 316 0010 1B88     		ldrh	r3, [r3]
 317 0012 1E2B     		cmp	r3, #30
 318 0014 02D9     		bls	.L33
  99:fsm.c         ****             
 319              		.loc 1 99 0 is_stmt 1
 320 0016 0220     		movs	r0, #2
 321 0018 FFF7FEFF 		bl	add_status
 322              	.LVL11:
 323              	.L33:
 101:fsm.c         ****         add_status(VCU_CHARGER_TIMEOUT);
 324              		.loc 1 101 0
 325 001c 1E4B     		ldr	r3, .L43+12
 326 001e 1B78     		ldrb	r3, [r3]	@ zero_extendqisi2
 327 0020 33B1     		cbz	r3, .L34
 101:fsm.c         ****         add_status(VCU_CHARGER_TIMEOUT);
 328              		.loc 1 101 0 is_stmt 0 discriminator 1
 329 0022 1E4B     		ldr	r3, .L43+16
 330 0024 1B88     		ldrh	r3, [r3]
 331 0026 1E2B     		cmp	r3, #30
 332 0028 02D9     		bls	.L34
ARM GAS  C:\Users\leoja\AppData\Local\Temp\cctQdlaO.s 			page 9


 102:fsm.c         ****     
 333              		.loc 1 102 0 is_stmt 1
 334 002a 0220     		movs	r0, #2
 335 002c FFF7FEFF 		bl	add_status
 336              	.LVL12:
 337              	.L34:
 104:fsm.c         ****     if(mc_post_faults != 0 || mc_run_faults != 0) add_status(MC_FAULT);
 338              		.loc 1 104 0
 339 0030 1B4B     		ldr	r3, .L43+20
 340 0032 1B88     		ldrh	r3, [r3]
 341 0034 1E2B     		cmp	r3, #30
 342 0036 02D9     		bls	.L35
 104:fsm.c         ****     if(mc_post_faults != 0 || mc_run_faults != 0) add_status(MC_FAULT);
 343              		.loc 1 104 0 is_stmt 0 discriminator 1
 344 0038 0820     		movs	r0, #8
 345 003a FFF7FEFF 		bl	add_status
 346              	.LVL13:
 347              	.L35:
 105:fsm.c         ****     if(mc_discharge_state == DISCHARGE_ACTIVE) add_status(MC_DISCHARGING);
 348              		.loc 1 105 0 is_stmt 1
 349 003e 194B     		ldr	r3, .L43+24
 350 0040 1B88     		ldrh	r3, [r3]
 351 0042 13B9     		cbnz	r3, .L36
 105:fsm.c         ****     if(mc_discharge_state == DISCHARGE_ACTIVE) add_status(MC_DISCHARGING);
 352              		.loc 1 105 0 is_stmt 0 discriminator 2
 353 0044 184B     		ldr	r3, .L43+28
 354 0046 1B88     		ldrh	r3, [r3]
 355 0048 13B1     		cbz	r3, .L37
 356              	.L36:
 105:fsm.c         ****     if(mc_discharge_state == DISCHARGE_ACTIVE) add_status(MC_DISCHARGING);
 357              		.loc 1 105 0 discriminator 3
 358 004a 1020     		movs	r0, #16
 359 004c FFF7FEFF 		bl	add_status
 360              	.LVL14:
 361              	.L37:
 106:fsm.c         ****     if(loops_since_bms_message > CAN_TIMEOUT_LOOP_COUNT) add_status(BMS_TIMEOUT);
 362              		.loc 1 106 0 is_stmt 1
 363 0050 164B     		ldr	r3, .L43+32
 364 0052 1B78     		ldrb	r3, [r3]	@ zero_extendqisi2
 365 0054 032B     		cmp	r3, #3
 366 0056 02D1     		bne	.L38
 106:fsm.c         ****     if(loops_since_bms_message > CAN_TIMEOUT_LOOP_COUNT) add_status(BMS_TIMEOUT);
 367              		.loc 1 106 0 is_stmt 0 discriminator 1
 368 0058 4020     		movs	r0, #64
 369 005a FFF7FEFF 		bl	add_status
 370              	.LVL15:
 371              	.L38:
 107:fsm.c         ****     if(SD_FINAL_Read() == 0) add_status(SHUTDOWN);     //shutdown circuit open
 372              		.loc 1 107 0 is_stmt 1
 373 005e 144B     		ldr	r3, .L43+36
 374 0060 1B88     		ldrh	r3, [r3]
 375 0062 1E2B     		cmp	r3, #30
 376 0064 02D9     		bls	.L39
 107:fsm.c         ****     if(SD_FINAL_Read() == 0) add_status(SHUTDOWN);     //shutdown circuit open
 377              		.loc 1 107 0 is_stmt 0 discriminator 1
 378 0066 0120     		movs	r0, #1
 379 0068 FFF7FEFF 		bl	add_status
ARM GAS  C:\Users\leoja\AppData\Local\Temp\cctQdlaO.s 			page 10


 380              	.LVL16:
 381              	.L39:
 108:fsm.c         ****     if((charger_status & 0b1011) != 0) add_status(CHARGER_FAULT); //check charger fault bits
 382              		.loc 1 108 0 is_stmt 1
 383 006c FFF7FEFF 		bl	SD_FINAL_Read
 384              	.LVL17:
 385 0070 10B9     		cbnz	r0, .L40
 108:fsm.c         ****     if((charger_status & 0b1011) != 0) add_status(CHARGER_FAULT); //check charger fault bits
 386              		.loc 1 108 0 is_stmt 0 discriminator 1
 387 0072 2020     		movs	r0, #32
 388 0074 FFF7FEFF 		bl	add_status
 389              	.LVL18:
 390              	.L40:
 109:fsm.c         ****     
 391              		.loc 1 109 0 is_stmt 1
 392 0078 0E4B     		ldr	r3, .L43+40
 393 007a 1B78     		ldrb	r3, [r3]	@ zero_extendqisi2
 394 007c 13F00B0F 		tst	r3, #11
 395 0080 02D0     		beq	.L32
 109:fsm.c         ****     
 396              		.loc 1 109 0 is_stmt 0 discriminator 1
 397 0082 8020     		movs	r0, #128
 398 0084 FFF7FEFF 		bl	add_status
 399              	.LVL19:
 400              	.L32:
 401 0088 08BD     		pop	{r3, pc}
 402              	.L44:
 403 008a 00BF     		.align	2
 404              	.L43:
 405 008c 00000000 		.word	pei_status
 406 0090 00000000 		.word	vcu_attached
 407 0094 00000000 		.word	loops_since_vcu_message
 408 0098 00000000 		.word	charger_attached
 409 009c 00000000 		.word	loops_since_charger_message
 410 00a0 00000000 		.word	loops_since_mc_message
 411 00a4 00000000 		.word	mc_post_faults
 412 00a8 00000000 		.word	mc_run_faults
 413 00ac 00000000 		.word	mc_discharge_state
 414 00b0 00000000 		.word	loops_since_bms_message
 415 00b4 00000000 		.word	charger_status
 416              		.cfi_endproc
 417              	.LFE68:
 418              		.size	update_status, .-update_status
 419              		.text
 420              	.Letext0:
 421              		.file 2 "c:\\program files (x86)\\cypress\\psoc creator\\4.4\\psoc creator\\import\\gnu\\arm\\5.4.
 422              		.file 3 "c:\\program files (x86)\\cypress\\psoc creator\\4.4\\psoc creator\\import\\gnu\\arm\\5.4.
 423              		.file 4 "fsm.h"
 424              		.file 5 "Generated_Source\\PSoC5/core_cm3.h"
 425              		.file 6 "Generated_Source\\PSoC5/LCD.h"
 426              		.file 7 "Generated_Source\\PSoC5/GPIO1_ESD.h"
 427              		.file 8 "Generated_Source\\PSoC5/SD_FINAL.h"