ARM GAS  C:\Users\JUSTIN~1\AppData\Local\Temp\ccyIjCsO.s 			page 1


   1              		.syntax unified
   2              		.cpu cortex-m3
   3              		.fpu softvfp
   4              		.eabi_attribute 20, 1
   5              		.eabi_attribute 21, 1
   6              		.eabi_attribute 23, 3
   7              		.eabi_attribute 24, 1
   8              		.eabi_attribute 25, 1
   9              		.eabi_attribute 26, 1
  10              		.eabi_attribute 30, 1
  11              		.eabi_attribute 34, 1
  12              		.eabi_attribute 18, 4
  13              		.thumb
  14              		.syntax unified
  15              		.file	"main.c"
  16              		.text
  17              	.Ltext0:
  18              		.cfi_sections	.debug_frame
  19              		.section	.text.Clear_interlock,"ax",%progbits
  20              		.align	2
  21              		.global	Clear_interlock
  22              		.thumb
  23              		.thumb_func
  24              		.type	Clear_interlock, %function
  25              	Clear_interlock:
  26              	.LFB0:
  27              		.file 1 "main.c"
   1:main.c        **** /* ========================================
   2:main.c        ****  *
   3:main.c        ****  * Copyright YOUR COMPANY, THE YEAR
   4:main.c        ****  * All Rights Reserved
   5:main.c        ****  * UNPUBLISHED, LICENSED SOFTWARE.
   6:main.c        ****  *
   7:main.c        ****  * CONFIDENTIAL AND PROPRIETARY INFORMATION
   8:main.c        ****  * WHICH IS THE PROPERTY OF your company.
   9:main.c        ****  *
  10:main.c        ****  * ========================================
  11:main.c        **** */
  12:main.c        **** #include "canInitialize.h"
  13:main.c        **** // first put it inside the main, put that into a source file in the future
  14:main.c        **** 
  15:main.c        **** 
  16:main.c        **** typedef struct{
  17:main.c        ****     double data0;
  18:main.c        ****     double data1;
  19:main.c        ****     double data2;
  20:main.c        **** }frame;
  21:main.c        **** 
  22:main.c        **** typedef struct 
  23:main.c        **** {
  24:main.c        ****     frame frame1;
  25:main.c        **** } canMsg;
  26:main.c        **** 
  27:main.c        **** 
  28:main.c        **** typedef enum {
  29:main.c        ****     VEHICLE_STATE = 0x0c0,
  30:main.c        ****     SWITCHES = 0x0d0,
ARM GAS  C:\Users\JUSTIN~1\AppData\Local\Temp\ccyIjCsO.s 			page 2


  31:main.c        ****     TORQUE_REQUEST_COMMAND = 0x766,
  32:main.c        ****     BMS_STATUS = 0x380,
  33:main.c        ****     PEI_CURRENT = 0x387,
  34:main.c        ****     BMS_VOLTAGES = 0x388,
  35:main.c        ****     BMS_TEMPERATURES = 0x389
  36:main.c        **** } CAN_ID;
  37:main.c        **** 
  38:main.c        **** void Clear_interlock() {
  28              		.loc 1 38 0
  29              		.cfi_startproc
  30              		@ args = 0, pretend = 0, frame = 0
  31              		@ frame_needed = 0, uses_anonymous_args = 0
  32              		@ link register save eliminated.
  33 0000 7047     		bx	lr
  34              		.cfi_endproc
  35              	.LFE0:
  36              		.size	Clear_interlock, .-Clear_interlock
  37 0002 00BF     		.section	.text.Set_Interlock,"ax",%progbits
  38              		.align	2
  39              		.global	Set_Interlock
  40              		.thumb
  41              		.thumb_func
  42              		.type	Set_Interlock, %function
  43              	Set_Interlock:
  44              	.LFB1:
  39:main.c        ****     //TODO
  40:main.c        ****     // trial
  41:main.c        ****     // make change
  42:main.c        **** }
  43:main.c        **** 
  44:main.c        **** void Set_Interlock() {
  45              		.loc 1 44 0
  46              		.cfi_startproc
  47              		@ args = 0, pretend = 0, frame = 0
  48              		@ frame_needed = 0, uses_anonymous_args = 0
  49              		@ link register save eliminated.
  50 0000 7047     		bx	lr
  51              		.cfi_endproc
  52              	.LFE1:
  53              		.size	Set_Interlock, .-Set_Interlock
  54 0002 00BF     		.section	.text.main,"ax",%progbits
  55              		.align	2
  56              		.global	main
  57              		.thumb
  58              		.thumb_func
  59              		.type	main, %function
  60              	main:
  61              	.LFB2:
  45:main.c        ****     //TODO   
  46:main.c        **** }
  47:main.c        **** 
  48:main.c        **** int main(void)
  49:main.c        **** {
  62              		.loc 1 49 0
  63              		.cfi_startproc
  64              		@ args = 0, pretend = 0, frame = 0
  65              		@ frame_needed = 0, uses_anonymous_args = 0
ARM GAS  C:\Users\JUSTIN~1\AppData\Local\Temp\ccyIjCsO.s 			page 3


  66              		@ link register save eliminated.
  67              	.L4:
  68              	.LVL0:
  69 0000 FEE7     		b	.L4
  70              		.cfi_endproc
  71              	.LFE2:
  72              		.size	main, .-main
  73 0002 00BF     		.text
  74              	.Letext0: